
npc-4bc7ebfe94c8fdc93832bc0e7af1279b:     file format elf64-x86-64


Disassembly of section .init:

0000000000400a30 <.init>:
  400a30:	48 83 ec 08          	sub    $0x8,%rsp
  400a34:	48 8b 05 bd 35 20 00 	mov    0x2035bd(%rip),%rax        # 603ff8 <_Unwind_Resume@plt+0x203448>
  400a3b:	48 85 c0             	test   %rax,%rax
  400a3e:	74 05                	je     400a45 <_ZSt20__throw_length_errorPKc@plt-0x1b>
  400a40:	e8 3b 00 00 00       	callq  400a80 <__gmon_start__@plt>
  400a45:	48 83 c4 08          	add    $0x8,%rsp
  400a49:	c3                   	retq   

Disassembly of section .plt:

0000000000400a50 <_ZSt20__throw_length_errorPKc@plt-0x10>:
  400a50:	ff 35 b2 35 20 00    	pushq  0x2035b2(%rip)        # 604008 <_Unwind_Resume@plt+0x203458>
  400a56:	ff 25 b4 35 20 00    	jmpq   *0x2035b4(%rip)        # 604010 <_Unwind_Resume@plt+0x203460>
  400a5c:	0f 1f 40 00          	nopl   0x0(%rax)

0000000000400a60 <_ZSt20__throw_length_errorPKc@plt>:
  400a60:	ff 25 b2 35 20 00    	jmpq   *0x2035b2(%rip)        # 604018 <_Unwind_Resume@plt+0x203468>
  400a66:	68 00 00 00 00       	pushq  $0x0
  400a6b:	e9 e0 ff ff ff       	jmpq   400a50 <_ZSt20__throw_length_errorPKc@plt-0x10>

0000000000400a70 <memset@plt>:
  400a70:	ff 25 aa 35 20 00    	jmpq   *0x2035aa(%rip)        # 604020 <_Unwind_Resume@plt+0x203470>
  400a76:	68 01 00 00 00       	pushq  $0x1
  400a7b:	e9 d0 ff ff ff       	jmpq   400a50 <_ZSt20__throw_length_errorPKc@plt-0x10>

0000000000400a80 <__gmon_start__@plt>:
  400a80:	ff 25 a2 35 20 00    	jmpq   *0x2035a2(%rip)        # 604028 <_Unwind_Resume@plt+0x203478>
  400a86:	68 02 00 00 00       	pushq  $0x2
  400a8b:	e9 c0 ff ff ff       	jmpq   400a50 <_ZSt20__throw_length_errorPKc@plt-0x10>

0000000000400a90 <puts@plt>:
  400a90:	ff 25 9a 35 20 00    	jmpq   *0x20359a(%rip)        # 604030 <_Unwind_Resume@plt+0x203480>
  400a96:	68 03 00 00 00       	pushq  $0x3
  400a9b:	e9 b0 ff ff ff       	jmpq   400a50 <_ZSt20__throw_length_errorPKc@plt-0x10>

0000000000400aa0 <_ZdlPv@plt>:
  400aa0:	ff 25 92 35 20 00    	jmpq   *0x203592(%rip)        # 604038 <_Unwind_Resume@plt+0x203488>
  400aa6:	68 04 00 00 00       	pushq  $0x4
  400aab:	e9 a0 ff ff ff       	jmpq   400a50 <_ZSt20__throw_length_errorPKc@plt-0x10>

0000000000400ab0 <exit@plt>:
  400ab0:	ff 25 8a 35 20 00    	jmpq   *0x20358a(%rip)        # 604040 <_Unwind_Resume@plt+0x203490>
  400ab6:	68 05 00 00 00       	pushq  $0x5
  400abb:	e9 90 ff ff ff       	jmpq   400a50 <_ZSt20__throw_length_errorPKc@plt-0x10>

0000000000400ac0 <__printf_chk@plt>:
  400ac0:	ff 25 82 35 20 00    	jmpq   *0x203582(%rip)        # 604048 <_Unwind_Resume@plt+0x203498>
  400ac6:	68 06 00 00 00       	pushq  $0x6
  400acb:	e9 80 ff ff ff       	jmpq   400a50 <_ZSt20__throw_length_errorPKc@plt-0x10>

0000000000400ad0 <_ZNSt8ios_base4InitC1Ev@plt>:
  400ad0:	ff 25 7a 35 20 00    	jmpq   *0x20357a(%rip)        # 604050 <_Unwind_Resume@plt+0x2034a0>
  400ad6:	68 07 00 00 00       	pushq  $0x7
  400adb:	e9 70 ff ff ff       	jmpq   400a50 <_ZSt20__throw_length_errorPKc@plt-0x10>

0000000000400ae0 <__libc_start_main@plt>:
  400ae0:	ff 25 72 35 20 00    	jmpq   *0x203572(%rip)        # 604058 <_Unwind_Resume@plt+0x2034a8>
  400ae6:	68 08 00 00 00       	pushq  $0x8
  400aeb:	e9 60 ff ff ff       	jmpq   400a50 <_ZSt20__throw_length_errorPKc@plt-0x10>

0000000000400af0 <_ZSt18_Rb_tree_decrementPSt18_Rb_tree_node_base@plt>:
  400af0:	ff 25 6a 35 20 00    	jmpq   *0x20356a(%rip)        # 604060 <_Unwind_Resume@plt+0x2034b0>
  400af6:	68 09 00 00 00       	pushq  $0x9
  400afb:	e9 50 ff ff ff       	jmpq   400a50 <_ZSt20__throw_length_errorPKc@plt-0x10>

0000000000400b00 <__cxa_atexit@plt>:
  400b00:	ff 25 62 35 20 00    	jmpq   *0x203562(%rip)        # 604068 <_Unwind_Resume@plt+0x2034b8>
  400b06:	68 0a 00 00 00       	pushq  $0xa
  400b0b:	e9 40 ff ff ff       	jmpq   400a50 <_ZSt20__throw_length_errorPKc@plt-0x10>

0000000000400b10 <_ZNSt8ios_base4InitD1Ev@plt>:
  400b10:	ff 25 5a 35 20 00    	jmpq   *0x20355a(%rip)        # 604070 <_Unwind_Resume@plt+0x2034c0>
  400b16:	68 0b 00 00 00       	pushq  $0xb
  400b1b:	e9 30 ff ff ff       	jmpq   400a50 <_ZSt20__throw_length_errorPKc@plt-0x10>

0000000000400b20 <_ZNSsD1Ev@plt>:
  400b20:	ff 25 52 35 20 00    	jmpq   *0x203552(%rip)        # 604078 <_Unwind_Resume@plt+0x2034c8>
  400b26:	68 0c 00 00 00       	pushq  $0xc
  400b2b:	e9 20 ff ff ff       	jmpq   400a50 <_ZSt20__throw_length_errorPKc@plt-0x10>

0000000000400b30 <strlen@plt>:
  400b30:	ff 25 4a 35 20 00    	jmpq   *0x20354a(%rip)        # 604080 <_Unwind_Resume@plt+0x2034d0>
  400b36:	68 0d 00 00 00       	pushq  $0xd
  400b3b:	e9 10 ff ff ff       	jmpq   400a50 <_ZSt20__throw_length_errorPKc@plt-0x10>

0000000000400b40 <_ZNSsC1EPKcRKSaIcE@plt>:
  400b40:	ff 25 42 35 20 00    	jmpq   *0x203542(%rip)        # 604088 <_Unwind_Resume@plt+0x2034d8>
  400b46:	68 0e 00 00 00       	pushq  $0xe
  400b4b:	e9 00 ff ff ff       	jmpq   400a50 <_ZSt20__throw_length_errorPKc@plt-0x10>

0000000000400b50 <memmove@plt>:
  400b50:	ff 25 3a 35 20 00    	jmpq   *0x20353a(%rip)        # 604090 <_Unwind_Resume@plt+0x2034e0>
  400b56:	68 0f 00 00 00       	pushq  $0xf
  400b5b:	e9 f0 fe ff ff       	jmpq   400a50 <_ZSt20__throw_length_errorPKc@plt-0x10>

0000000000400b60 <strdup@plt>:
  400b60:	ff 25 32 35 20 00    	jmpq   *0x203532(%rip)        # 604098 <_Unwind_Resume@plt+0x2034e8>
  400b66:	68 10 00 00 00       	pushq  $0x10
  400b6b:	e9 e0 fe ff ff       	jmpq   400a50 <_ZSt20__throw_length_errorPKc@plt-0x10>

0000000000400b70 <_ZSt29_Rb_tree_insert_and_rebalancebPSt18_Rb_tree_node_baseS0_RS_@plt>:
  400b70:	ff 25 2a 35 20 00    	jmpq   *0x20352a(%rip)        # 6040a0 <_Unwind_Resume@plt+0x2034f0>
  400b76:	68 11 00 00 00       	pushq  $0x11
  400b7b:	e9 d0 fe ff ff       	jmpq   400a50 <_ZSt20__throw_length_errorPKc@plt-0x10>

0000000000400b80 <memcmp@plt>:
  400b80:	ff 25 22 35 20 00    	jmpq   *0x203522(%rip)        # 6040a8 <_Unwind_Resume@plt+0x2034f8>
  400b86:	68 12 00 00 00       	pushq  $0x12
  400b8b:	e9 c0 fe ff ff       	jmpq   400a50 <_ZSt20__throw_length_errorPKc@plt-0x10>

0000000000400b90 <__gxx_personality_v0@plt>:
  400b90:	ff 25 1a 35 20 00    	jmpq   *0x20351a(%rip)        # 6040b0 <_Unwind_Resume@plt+0x203500>
  400b96:	68 13 00 00 00       	pushq  $0x13
  400b9b:	e9 b0 fe ff ff       	jmpq   400a50 <_ZSt20__throw_length_errorPKc@plt-0x10>

0000000000400ba0 <_Znwm@plt>:
  400ba0:	ff 25 12 35 20 00    	jmpq   *0x203512(%rip)        # 6040b8 <_Unwind_Resume@plt+0x203508>
  400ba6:	68 14 00 00 00       	pushq  $0x14
  400bab:	e9 a0 fe ff ff       	jmpq   400a50 <_ZSt20__throw_length_errorPKc@plt-0x10>

0000000000400bb0 <_Unwind_Resume@plt>:
  400bb0:	ff 25 0a 35 20 00    	jmpq   *0x20350a(%rip)        # 6040c0 <_Unwind_Resume@plt+0x203510>
  400bb6:	68 15 00 00 00       	pushq  $0x15
  400bbb:	e9 90 fe ff ff       	jmpq   400a50 <_ZSt20__throw_length_errorPKc@plt-0x10>

Disassembly of section .text:

0000000000400bc0 <.text>:
  400bc0:	41 57                	push   %r15
  400bc2:	41 56                	push   %r14
  400bc4:	41 55                	push   %r13
  400bc6:	41 54                	push   %r12
  400bc8:	55                   	push   %rbp
  400bc9:	53                   	push   %rbx
  400bca:	48 81 ec 58 03 00 00 	sub    $0x358,%rsp
  400bd1:	83 ff 02             	cmp    $0x2,%edi
  400bd4:	0f 85 4a 12 00 00    	jne    401e24 <_Unwind_Resume@plt+0x1274>
  400bda:	48 8b 7e 08          	mov    0x8(%rsi),%rdi
  400bde:	e8 7d ff ff ff       	callq  400b60 <strdup@plt>
  400be3:	48 85 c0             	test   %rax,%rax
  400be6:	48 89 44 24 28       	mov    %rax,0x28(%rsp)
  400beb:	0f 84 51 12 00 00    	je     401e42 <_Unwind_Resume@plt+0x1292>
  400bf1:	48 89 c7             	mov    %rax,%rdi
  400bf4:	e8 37 ff ff ff       	callq  400b30 <strlen@plt>
  400bf9:	89 c7                	mov    %eax,%edi
  400bfb:	48 89 c3             	mov    %rax,%rbx
  400bfe:	e8 7d 1d 00 00       	callq  402980 <_Unwind_Resume@plt+0x1dd0>
  400c03:	84 c0                	test   %al,%al
  400c05:	0f 84 02 12 00 00    	je     401e0d <_Unwind_Resume@plt+0x125d>
  400c0b:	48 8d 94 24 50 01 00 	lea    0x150(%rsp),%rdx
  400c12:	00 
  400c13:	48 c7 c0 ff ff ff ff 	mov    $0xffffffffffffffff,%rax
  400c1a:	b9 3f 00 00 00       	mov    $0x3f,%ecx
  400c1f:	45 31 c0             	xor    %r8d,%r8d
  400c22:	48 89 d7             	mov    %rdx,%rdi
  400c25:	ba 2a 00 00 00       	mov    $0x2a,%edx
  400c2a:	f3 48 ab             	rep stos %rax,%es:(%rdi)
  400c2d:	89 07                	mov    %eax,(%rdi)
  400c2f:	b1 0a                	mov    $0xa,%cl
  400c31:	bf 09 04 02 81       	mov    $0x81020409,%edi
  400c36:	eb 2f                	jmp    400c67 <_Unwind_Resume@plt+0xb7>
  400c38:	0f 1f 84 00 00 00 00 	nopl   0x0(%rax,%rax,1)
  400c3f:	00 
  400c40:	8d 0c d5 00 00 00 00 	lea    0x0(,%rdx,8),%ecx
  400c47:	29 d1                	sub    %edx,%ecx
  400c49:	89 c8                	mov    %ecx,%eax
  400c4b:	f7 ef                	imul   %edi
  400c4d:	89 c8                	mov    %ecx,%eax
  400c4f:	c1 f8 1f             	sar    $0x1f,%eax
  400c52:	01 ca                	add    %ecx,%edx
  400c54:	c1 fa 06             	sar    $0x6,%edx
  400c57:	29 c2                	sub    %eax,%edx
  400c59:	89 d0                	mov    %edx,%eax
  400c5b:	c1 e0 07             	shl    $0x7,%eax
  400c5e:	29 d0                	sub    %edx,%eax
  400c60:	29 c1                	sub    %eax,%ecx
  400c62:	89 ca                	mov    %ecx,%edx
  400c64:	8d 49 e0             	lea    -0x20(%rcx),%ecx
  400c67:	83 f9 5e             	cmp    $0x5e,%ecx
  400c6a:	77 d4                	ja     400c40 <_Unwind_Resume@plt+0x90>
  400c6c:	48 63 c2             	movslq %edx,%rax
  400c6f:	83 bc 84 50 01 00 00 	cmpl   $0xffffffff,0x150(%rsp,%rax,4)
  400c76:	ff 
  400c77:	75 c7                	jne    400c40 <_Unwind_Resume@plt+0x90>
  400c79:	44 89 84 84 50 01 00 	mov    %r8d,0x150(%rsp,%rax,4)
  400c80:	00 
  400c81:	41 83 c0 01          	add    $0x1,%r8d
  400c85:	41 83 f8 20          	cmp    $0x20,%r8d
  400c89:	75 dc                	jne    400c67 <_Unwind_Resume@plt+0xb7>
  400c8b:	48 8b 74 24 28       	mov    0x28(%rsp),%rsi
  400c90:	bf 8f 2c 40 00       	mov    $0x402c8f,%edi
  400c95:	b9 07 00 00 00       	mov    $0x7,%ecx
  400c9a:	f3 a6                	repz cmpsb %es:(%rdi),%ds:(%rsi)
  400c9c:	0f 97 c0             	seta   %al
  400c9f:	0f 92 c2             	setb   %dl
  400ca2:	29 d0                	sub    %edx,%eax
  400ca4:	0f be c0             	movsbl %al,%eax
  400ca7:	85 c0                	test   %eax,%eax
  400ca9:	0f 85 5e 11 00 00    	jne    401e0d <_Unwind_Resume@plt+0x125d>
  400caf:	48 8b 74 24 28       	mov    0x28(%rsp),%rsi
  400cb4:	48 63 d3             	movslq %ebx,%rdx
  400cb7:	80 7c 16 ff 7d       	cmpb   $0x7d,-0x1(%rsi,%rdx,1)
  400cbc:	0f 85 4b 11 00 00    	jne    401e0d <_Unwind_Resume@plt+0x125d>
  400cc2:	83 fb 08             	cmp    $0x8,%ebx
  400cc5:	0f 8e 1b 02 00 00    	jle    400ee6 <_Unwind_Resume@plt+0x336>
  400ccb:	48 0f be 46 07       	movsbq 0x7(%rsi),%rax
  400cd0:	8d 50 e0             	lea    -0x20(%rax),%edx
  400cd3:	80 fa 5e             	cmp    $0x5e,%dl
  400cd6:	0f 87 31 11 00 00    	ja     401e0d <_Unwind_Resume@plt+0x125d>
  400cdc:	83 bc 84 50 01 00 00 	cmpl   $0xffffffff,0x150(%rsp,%rax,4)
  400ce3:	ff 
  400ce4:	0f 84 23 11 00 00    	je     401e0d <_Unwind_Resume@plt+0x125d>
  400cea:	8d 73 f7             	lea    -0x9(%rbx),%esi
  400ced:	31 d2                	xor    %edx,%edx
  400cef:	48 8b 7c 24 28       	mov    0x28(%rsp),%rdi
  400cf4:	eb 2e                	jmp    400d24 <_Unwind_Resume@plt+0x174>
  400cf6:	66 2e 0f 1f 84 00 00 	nopw   %cs:0x0(%rax,%rax,1)
  400cfd:	00 00 00 
  400d00:	48 0f be 44 17 08    	movsbq 0x8(%rdi,%rdx,1),%rax
  400d06:	8d 48 e0             	lea    -0x20(%rax),%ecx
  400d09:	80 f9 5e             	cmp    $0x5e,%cl
  400d0c:	0f 87 fb 10 00 00    	ja     401e0d <_Unwind_Resume@plt+0x125d>
  400d12:	48 83 c2 01          	add    $0x1,%rdx
  400d16:	83 bc 84 50 01 00 00 	cmpl   $0xffffffff,0x150(%rsp,%rax,4)
  400d1d:	ff 
  400d1e:	0f 84 e9 10 00 00    	je     401e0d <_Unwind_Resume@plt+0x125d>
  400d24:	48 39 f2             	cmp    %rsi,%rdx
  400d27:	75 d7                	jne    400d00 <_Unwind_Resume@plt+0x150>
  400d29:	48 8d bc 24 10 01 00 	lea    0x110(%rsp),%rdi
  400d30:	00 
  400d31:	31 c0                	xor    %eax,%eax
  400d33:	b9 07 00 00 00       	mov    $0x7,%ecx
  400d38:	4c 8d 4c 92 05       	lea    0x5(%rdx,%rdx,4),%r9
  400d3d:	be 01 00 00 00       	mov    $0x1,%esi
  400d42:	f3 48 ab             	rep stos %rax,%es:(%rdi)
  400d45:	48 8b 44 24 28       	mov    0x28(%rsp),%rax
  400d4a:	31 ff                	xor    %edi,%edi
  400d4c:	4c 8d 40 07          	lea    0x7(%rax),%r8
  400d50:	31 c0                	xor    %eax,%eax
  400d52:	e9 26 01 00 00       	jmpq   400e7d <_Unwind_Resume@plt+0x2cd>
  400d57:	48 f7 d1             	not    %rcx
  400d5a:	48 21 f9             	and    %rdi,%rcx
  400d5d:	48 89 8c dc 10 01 00 	mov    %rcx,0x110(%rsp,%rbx,8)
  400d64:	00 
  400d65:	89 d1                	mov    %edx,%ecx
  400d67:	48 8d 78 01          	lea    0x1(%rax),%rdi
  400d6b:	c1 e9 1f             	shr    $0x1f,%ecx
  400d6e:	49 89 f7             	mov    %rsi,%r15
  400d71:	41 8d 5a 02          	lea    0x2(%r10),%ebx
  400d75:	01 ca                	add    %ecx,%edx
  400d77:	44 89 d9             	mov    %r11d,%ecx
  400d7a:	48 c1 ef 06          	shr    $0x6,%rdi
  400d7e:	83 e1 3f             	and    $0x3f,%ecx
  400d81:	d1 fa                	sar    %edx
  400d83:	49 d3 e7             	shl    %cl,%r15
  400d86:	f6 c2 01             	test   $0x1,%dl
  400d89:	4c 89 f9             	mov    %r15,%rcx
  400d8c:	0f 85 47 01 00 00    	jne    400ed9 <_Unwind_Resume@plt+0x329>
  400d92:	48 f7 d1             	not    %rcx
  400d95:	48 23 8c fc 10 01 00 	and    0x110(%rsp,%rdi,8),%rcx
  400d9c:	00 
  400d9d:	48 89 8c fc 10 01 00 	mov    %rcx,0x110(%rsp,%rdi,8)
  400da4:	00 
  400da5:	89 d1                	mov    %edx,%ecx
  400da7:	83 e3 3f             	and    $0x3f,%ebx
  400daa:	c1 e9 1f             	shr    $0x1f,%ecx
  400dad:	48 8d 78 02          	lea    0x2(%rax),%rdi
  400db1:	45 8d 5a 03          	lea    0x3(%r10),%r11d
  400db5:	01 ca                	add    %ecx,%edx
  400db7:	89 d9                	mov    %ebx,%ecx
  400db9:	48 89 f3             	mov    %rsi,%rbx
  400dbc:	d1 fa                	sar    %edx
  400dbe:	48 d3 e3             	shl    %cl,%rbx
  400dc1:	48 c1 ef 06          	shr    $0x6,%rdi
  400dc5:	f6 c2 01             	test   $0x1,%dl
  400dc8:	48 89 d9             	mov    %rbx,%rcx
  400dcb:	0f 85 fb 00 00 00    	jne    400ecc <_Unwind_Resume@plt+0x31c>
  400dd1:	48 f7 d1             	not    %rcx
  400dd4:	48 23 8c fc 10 01 00 	and    0x110(%rsp,%rdi,8),%rcx
  400ddb:	00 
  400ddc:	48 89 8c fc 10 01 00 	mov    %rcx,0x110(%rsp,%rdi,8)
  400de3:	00 
  400de4:	89 d1                	mov    %edx,%ecx
  400de6:	48 8d 78 03          	lea    0x3(%rax),%rdi
  400dea:	c1 e9 1f             	shr    $0x1f,%ecx
  400ded:	48 89 f3             	mov    %rsi,%rbx
  400df0:	41 83 c2 04          	add    $0x4,%r10d
  400df4:	01 ca                	add    %ecx,%edx
  400df6:	44 89 d9             	mov    %r11d,%ecx
  400df9:	48 c1 ef 06          	shr    $0x6,%rdi
  400dfd:	83 e1 3f             	and    $0x3f,%ecx
  400e00:	d1 fa                	sar    %edx
  400e02:	48 d3 e3             	shl    %cl,%rbx
  400e05:	f6 c2 01             	test   $0x1,%dl
  400e08:	48 89 d9             	mov    %rbx,%rcx
  400e0b:	0f 85 ae 00 00 00    	jne    400ebf <_Unwind_Resume@plt+0x30f>
  400e11:	48 f7 d1             	not    %rcx
  400e14:	48 23 8c fc 10 01 00 	and    0x110(%rsp,%rdi,8),%rcx
  400e1b:	00 
  400e1c:	48 89 8c fc 10 01 00 	mov    %rcx,0x110(%rsp,%rdi,8)
  400e23:	00 
  400e24:	44 89 d1             	mov    %r10d,%ecx
  400e27:	41 89 d2             	mov    %edx,%r10d
  400e2a:	41 c1 ea 1f          	shr    $0x1f,%r10d
  400e2e:	48 8d 78 04          	lea    0x4(%rax),%rdi
  400e32:	83 e1 3f             	and    $0x3f,%ecx
  400e35:	44 01 d2             	add    %r10d,%edx
  400e38:	48 89 f3             	mov    %rsi,%rbx
  400e3b:	48 d3 e3             	shl    %cl,%rbx
  400e3e:	48 c1 ef 06          	shr    $0x6,%rdi
  400e42:	83 e2 02             	and    $0x2,%edx
  400e45:	48 89 d9             	mov    %rbx,%rcx
  400e48:	75 6b                	jne    400eb5 <_Unwind_Resume@plt+0x305>
  400e4a:	48 f7 d1             	not    %rcx
  400e4d:	48 23 8c fc 10 01 00 	and    0x110(%rsp,%rdi,8),%rcx
  400e54:	00 
  400e55:	48 83 c0 05          	add    $0x5,%rax
  400e59:	49 83 c0 01          	add    $0x1,%r8
  400e5d:	48 89 8c fc 10 01 00 	mov    %rcx,0x110(%rsp,%rdi,8)
  400e64:	00 
  400e65:	4c 39 c8             	cmp    %r9,%rax
  400e68:	0f 84 87 00 00 00    	je     400ef5 <_Unwind_Resume@plt+0x345>
  400e6e:	48 89 c2             	mov    %rax,%rdx
  400e71:	48 c1 ea 06          	shr    $0x6,%rdx
  400e75:	48 8b bc d4 10 01 00 	mov    0x110(%rsp,%rdx,8),%rdi
  400e7c:	00 
  400e7d:	49 0f be 10          	movsbq (%r8),%rdx
  400e81:	89 c1                	mov    %eax,%ecx
  400e83:	48 89 c3             	mov    %rax,%rbx
  400e86:	83 e1 3f             	and    $0x3f,%ecx
  400e89:	49 89 f7             	mov    %rsi,%r15
  400e8c:	48 c1 eb 06          	shr    $0x6,%rbx
  400e90:	49 d3 e7             	shl    %cl,%r15
  400e93:	41 89 c2             	mov    %eax,%r10d
  400e96:	44 8d 58 01          	lea    0x1(%rax),%r11d
  400e9a:	4c 89 f9             	mov    %r15,%rcx
  400e9d:	8b 94 94 50 01 00 00 	mov    0x150(%rsp,%rdx,4),%edx
  400ea4:	f6 c2 01             	test   $0x1,%dl
  400ea7:	0f 84 aa fe ff ff    	je     400d57 <_Unwind_Resume@plt+0x1a7>
  400ead:	48 09 f9             	or     %rdi,%rcx
  400eb0:	e9 a8 fe ff ff       	jmpq   400d5d <_Unwind_Resume@plt+0x1ad>
  400eb5:	48 0b 8c fc 10 01 00 	or     0x110(%rsp,%rdi,8),%rcx
  400ebc:	00 
  400ebd:	eb 96                	jmp    400e55 <_Unwind_Resume@plt+0x2a5>
  400ebf:	48 0b 8c fc 10 01 00 	or     0x110(%rsp,%rdi,8),%rcx
  400ec6:	00 
  400ec7:	e9 50 ff ff ff       	jmpq   400e1c <_Unwind_Resume@plt+0x26c>
  400ecc:	48 0b 8c fc 10 01 00 	or     0x110(%rsp,%rdi,8),%rcx
  400ed3:	00 
  400ed4:	e9 03 ff ff ff       	jmpq   400ddc <_Unwind_Resume@plt+0x22c>
  400ed9:	48 0b 8c fc 10 01 00 	or     0x110(%rsp,%rdi,8),%rcx
  400ee0:	00 
  400ee1:	e9 b7 fe ff ff       	jmpq   400d9d <_Unwind_Resume@plt+0x1ed>
  400ee6:	48 8d bc 24 10 01 00 	lea    0x110(%rsp),%rdi
  400eed:	00 
  400eee:	b9 0e 00 00 00       	mov    $0xe,%ecx
  400ef3:	f3 ab                	rep stos %eax,%es:(%rdi)
  400ef5:	48 8b 0d f4 31 20 00 	mov    0x2031f4(%rip),%rcx        # 6040f0 <_Unwind_Resume@plt+0x203540>
  400efc:	31 d2                	xor    %edx,%edx
  400efe:	31 c0                	xor    %eax,%eax
  400f00:	45 31 e4             	xor    %r12d,%r12d
  400f03:	48 c7 84 24 c0 00 00 	movq   $0x0,0xc0(%rsp)
  400f0a:	00 00 00 00 00 
  400f0f:	48 c7 84 24 c8 00 00 	movq   $0x0,0xc8(%rsp)
  400f16:	00 00 00 00 00 
  400f1b:	48 c7 84 24 d0 00 00 	movq   $0x0,0xd0(%rsp)
  400f22:	00 00 00 00 00 
  400f27:	48 83 79 e8 00       	cmpq   $0x0,-0x18(%rcx)
  400f2c:	0f 84 06 01 00 00    	je     401038 <_Unwind_Resume@plt+0x488>
  400f32:	66 0f 1f 44 00 00    	nopw   0x0(%rax,%rax,1)
  400f38:	42 0f b6 34 21       	movzbl (%rcx,%r12,1),%esi
  400f3d:	40 80 f6 2a          	xor    $0x2a,%sil
  400f41:	0f 84 80 00 00 00    	je     400fc7 <_Unwind_Resume@plt+0x417>
  400f47:	40 0f be f6          	movsbl %sil,%esi
  400f4b:	31 db                	xor    %ebx,%ebx
  400f4d:	8d 6e ff             	lea    -0x1(%rsi),%ebp
  400f50:	48 83 c5 01          	add    $0x1,%rbp
  400f54:	eb 2a                	jmp    400f80 <_Unwind_Resume@plt+0x3d0>
  400f56:	66 2e 0f 1f 84 00 00 	nopw   %cs:0x0(%rax,%rax,1)
  400f5d:	00 00 00 
  400f60:	48 85 c0             	test   %rax,%rax
  400f63:	74 06                	je     400f6b <_Unwind_Resume@plt+0x3bb>
  400f65:	c7 00 00 00 00 00    	movl   $0x0,(%rax)
  400f6b:	48 83 c3 01          	add    $0x1,%rbx
  400f6f:	48 83 c0 04          	add    $0x4,%rax
  400f73:	48 39 eb             	cmp    %rbp,%rbx
  400f76:	48 89 84 24 c8 00 00 	mov    %rax,0xc8(%rsp)
  400f7d:	00 
  400f7e:	74 40                	je     400fc0 <_Unwind_Resume@plt+0x410>
  400f80:	48 39 d0             	cmp    %rdx,%rax
  400f83:	c7 84 24 e0 00 00 00 	movl   $0x0,0xe0(%rsp)
  400f8a:	00 00 00 00 
  400f8e:	75 d0                	jne    400f60 <_Unwind_Resume@plt+0x3b0>
  400f90:	48 8d b4 24 e0 00 00 	lea    0xe0(%rsp),%rsi
  400f97:	00 
  400f98:	48 8d bc 24 c0 00 00 	lea    0xc0(%rsp),%rdi
  400f9f:	00 
  400fa0:	e8 4b 1b 00 00       	callq  402af0 <_Unwind_Resume@plt+0x1f40>
  400fa5:	48 83 c3 01          	add    $0x1,%rbx
  400fa9:	48 8b 84 24 c8 00 00 	mov    0xc8(%rsp),%rax
  400fb0:	00 
  400fb1:	48 8b 94 24 d0 00 00 	mov    0xd0(%rsp),%rdx
  400fb8:	00 
  400fb9:	48 39 eb             	cmp    %rbp,%rbx
  400fbc:	75 c2                	jne    400f80 <_Unwind_Resume@plt+0x3d0>
  400fbe:	66 90                	xchg   %ax,%ax
  400fc0:	48 8b 0d 29 31 20 00 	mov    0x203129(%rip),%rcx        # 6040f0 <_Unwind_Resume@plt+0x203540>
  400fc7:	42 0f b6 74 21 01    	movzbl 0x1(%rcx,%r12,1),%esi
  400fcd:	83 f6 2a             	xor    $0x2a,%esi
  400fd0:	48 39 d0             	cmp    %rdx,%rax
  400fd3:	40 0f be f6          	movsbl %sil,%esi
  400fd7:	89 b4 24 e0 00 00 00 	mov    %esi,0xe0(%rsp)
  400fde:	74 32                	je     401012 <_Unwind_Resume@plt+0x462>
  400fe0:	48 85 c0             	test   %rax,%rax
  400fe3:	74 02                	je     400fe7 <_Unwind_Resume@plt+0x437>
  400fe5:	89 30                	mov    %esi,(%rax)
  400fe7:	48 83 c0 04          	add    $0x4,%rax
  400feb:	49 83 c4 02          	add    $0x2,%r12
  400fef:	4c 3b 61 e8          	cmp    -0x18(%rcx),%r12
  400ff3:	48 89 84 24 c8 00 00 	mov    %rax,0xc8(%rsp)
  400ffa:	00 
  400ffb:	73 3b                	jae    401038 <_Unwind_Resume@plt+0x488>
  400ffd:	48 8b 84 24 c8 00 00 	mov    0xc8(%rsp),%rax
  401004:	00 
  401005:	48 8b 94 24 d0 00 00 	mov    0xd0(%rsp),%rdx
  40100c:	00 
  40100d:	e9 26 ff ff ff       	jmpq   400f38 <_Unwind_Resume@plt+0x388>
  401012:	48 8d b4 24 e0 00 00 	lea    0xe0(%rsp),%rsi
  401019:	00 
  40101a:	48 8d bc 24 c0 00 00 	lea    0xc0(%rsp),%rdi
  401021:	00 
  401022:	e8 79 18 00 00       	callq  4028a0 <_Unwind_Resume@plt+0x1cf0>
  401027:	48 8b 0d c2 30 20 00 	mov    0x2030c2(%rip),%rcx        # 6040f0 <_Unwind_Resume@plt+0x203540>
  40102e:	49 83 c4 02          	add    $0x2,%r12
  401032:	4c 3b 61 e8          	cmp    -0x18(%rcx),%r12
  401036:	72 c5                	jb     400ffd <_Unwind_Resume@plt+0x44d>
  401038:	bf 30 00 00 00       	mov    $0x30,%edi
  40103d:	e8 5e fb ff ff       	callq  400ba0 <_Znwm@plt>
  401042:	be 90 01 00 00       	mov    $0x190,%esi
  401047:	48 89 c7             	mov    %rax,%rdi
  40104a:	49 89 c7             	mov    %rax,%r15
  40104d:	e8 3e 14 00 00       	callq  402490 <_Unwind_Resume@plt+0x18e0>
  401052:	4c 8d 9c 24 c0 00 00 	lea    0xc0(%rsp),%r11
  401059:	00 
  40105a:	45 31 c0             	xor    %r8d,%r8d
  40105d:	4c 89 7c 24 08       	mov    %r15,0x8(%rsp)
  401062:	66 0f 6f 05 f6 1c 00 	movdqa 0x1cf6(%rip),%xmm0        # 402d60 <_Unwind_Resume@plt+0x21b0>
  401069:	00 
  40106a:	45 31 d2             	xor    %r10d,%r10d
  40106d:	4d 89 c1             	mov    %r8,%r9
  401070:	4d 89 df             	mov    %r11,%r15
  401073:	0f 1f 44 00 00       	nopl   0x0(%rax,%rax,1)
  401078:	4e 8d 04 8d 00 00 00 	lea    0x0(,%r9,4),%r8
  40107f:	00 
  401080:	4d 89 cd             	mov    %r9,%r13
  401083:	45 31 db             	xor    %r11d,%r11d
  401086:	45 89 d1             	mov    %r10d,%r9d
  401089:	4d 89 fa             	mov    %r15,%r10
  40108c:	4d 89 c7             	mov    %r8,%r15
  40108f:	90                   	nop
  401090:	47 8d 24 2b          	lea    (%r11,%r13,1),%r12d
  401094:	4b 8d 54 1d 00       	lea    0x0(%r13,%r11,1),%rdx
  401099:	b8 01 00 00 00       	mov    $0x1,%eax
  40109e:	66 0f 7f 84 24 b0 00 	movdqa %xmm0,0xb0(%rsp)
  4010a5:	00 00 
  4010a7:	44 89 e1             	mov    %r12d,%ecx
  4010aa:	48 c1 ea 06          	shr    $0x6,%rdx
  4010ae:	48 8d 9c 24 b0 00 00 	lea    0xb0(%rsp),%rbx
  4010b5:	00 
  4010b6:	48 d3 e0             	shl    %cl,%rax
  4010b9:	45 89 de             	mov    %r11d,%r14d
  4010bc:	48 85 84 d4 10 01 00 	test   %rax,0x110(%rsp,%rdx,8)
  4010c3:	00 
  4010c4:	41 0f 95 c0          	setne  %r8b
  4010c8:	8b 03                	mov    (%rbx),%eax
  4010ca:	8b 53 04             	mov    0x4(%rbx),%edx
  4010cd:	44 01 c8             	add    %r9d,%eax
  4010d0:	83 f8 13             	cmp    $0x13,%eax
  4010d3:	77 34                	ja     401109 <_Unwind_Resume@plt+0x559>
  4010d5:	44 01 f2             	add    %r14d,%edx
  4010d8:	83 fa 13             	cmp    $0x13,%edx
  4010db:	77 2c                	ja     401109 <_Unwind_Resume@plt+0x559>
  4010dd:	8d 04 80             	lea    (%rax,%rax,4),%eax
  4010e0:	8d 0c 82             	lea    (%rdx,%rax,4),%ecx
  4010e3:	b8 01 00 00 00       	mov    $0x1,%eax
  4010e8:	48 63 e9             	movslq %ecx,%rbp
  4010eb:	48 d3 e0             	shl    %cl,%rax
  4010ee:	48 89 ea             	mov    %rbp,%rdx
  4010f1:	48 c1 ea 06          	shr    $0x6,%rdx
  4010f5:	48 85 84 d4 10 01 00 	test   %rax,0x110(%rsp,%rdx,8)
  4010fc:	00 
  4010fd:	0f 95 c0             	setne  %al
  401100:	41 38 c0             	cmp    %al,%r8b
  401103:	0f 84 47 04 00 00    	je     401550 <_Unwind_Resume@plt+0x9a0>
  401109:	48 83 c3 08          	add    $0x8,%rbx
  40110d:	49 39 da             	cmp    %rbx,%r10
  401110:	75 b6                	jne    4010c8 <_Unwind_Resume@plt+0x518>
  401112:	49 83 c3 01          	add    $0x1,%r11
  401116:	49 83 c7 04          	add    $0x4,%r15
  40111a:	49 83 fb 14          	cmp    $0x14,%r11
  40111e:	0f 85 6c ff ff ff    	jne    401090 <_Unwind_Resume@plt+0x4e0>
  401124:	4d 89 d7             	mov    %r10,%r15
  401127:	45 89 ca             	mov    %r9d,%r10d
  40112a:	4d 89 e9             	mov    %r13,%r9
  40112d:	41 83 c2 01          	add    $0x1,%r10d
  401131:	49 83 c1 14          	add    $0x14,%r9
  401135:	41 83 fa 14          	cmp    $0x14,%r10d
  401139:	0f 85 39 ff ff ff    	jne    401078 <_Unwind_Resume@plt+0x4c8>
  40113f:	4c 8b 8c 24 c0 00 00 	mov    0xc0(%rsp),%r9
  401146:	00 
  401147:	4c 8b 7c 24 08       	mov    0x8(%rsp),%r15
  40114c:	45 30 db             	xor    %r11b,%r11b
  40114f:	4c 89 c8             	mov    %r9,%rax
  401152:	4d 89 d9             	mov    %r11,%r9
  401155:	4d 89 fb             	mov    %r15,%r11
  401158:	49 89 c7             	mov    %rax,%r15
  40115b:	0f 1f 44 00 00       	nopl   0x0(%rax,%rax,1)
  401160:	4e 8d 34 8d 00 00 00 	lea    0x0(,%r9,4),%r14
  401167:	00 
  401168:	31 db                	xor    %ebx,%ebx
  40116a:	66 0f 1f 44 00 00    	nopw   0x0(%rax,%rax,1)
  401170:	4b 8d 34 37          	lea    (%r15,%r14,1),%rsi
  401174:	42 8d 0c 0b          	lea    (%rbx,%r9,1),%ecx
  401178:	49 8d 14 19          	lea    (%r9,%rbx,1),%rdx
  40117c:	8b 06                	mov    (%rsi),%eax
  40117e:	85 c0                	test   %eax,%eax
  401180:	0f 84 99 01 00 00    	je     40131f <_Unwind_Resume@plt+0x76f>
  401186:	bf 01 00 00 00       	mov    $0x1,%edi
  40118b:	48 c1 ea 06          	shr    $0x6,%rdx
  40118f:	48 d3 e7             	shl    %cl,%rdi
  401192:	48 85 bc d4 10 01 00 	test   %rdi,0x110(%rsp,%rdx,8)
  401199:	00 
  40119a:	0f 85 b6 0c 00 00    	jne    401e56 <_Unwind_Resume@plt+0x12a6>
  4011a0:	4d 8b 13             	mov    (%r11),%r10
  4011a3:	4d 89 f0             	mov    %r14,%r8
  4011a6:	4b 8d 2c 32          	lea    (%r10,%r14,1),%rbp
  4011aa:	8b 55 00             	mov    0x0(%rbp),%edx
  4011ad:	39 ca                	cmp    %ecx,%edx
  4011af:	0f 84 5c 01 00 00    	je     401311 <_Unwind_Resume@plt+0x761>
  4011b5:	4c 63 c2             	movslq %edx,%r8
  4011b8:	48 89 f0             	mov    %rsi,%rax
  4011bb:	49 c1 e0 02          	shl    $0x2,%r8
  4011bf:	4f 8d 24 02          	lea    (%r10,%r8,1),%r12
  4011c3:	41 8b 0c 24          	mov    (%r12),%ecx
  4011c7:	39 ca                	cmp    %ecx,%edx
  4011c9:	0f 84 3d 01 00 00    	je     40130c <_Unwind_Resume@plt+0x75c>
  4011cf:	4c 63 c1             	movslq %ecx,%r8
  4011d2:	49 c1 e0 02          	shl    $0x2,%r8
  4011d6:	4f 8d 2c 02          	lea    (%r10,%r8,1),%r13
  4011da:	41 8b 55 00          	mov    0x0(%r13),%edx
  4011de:	39 d1                	cmp    %edx,%ecx
  4011e0:	0f 84 22 01 00 00    	je     401308 <_Unwind_Resume@plt+0x758>
  4011e6:	4c 63 c2             	movslq %edx,%r8
  4011e9:	49 c1 e0 02          	shl    $0x2,%r8
  4011ed:	4b 8d 0c 02          	lea    (%r10,%r8,1),%rcx
  4011f1:	8b 39                	mov    (%rcx),%edi
  4011f3:	39 fa                	cmp    %edi,%edx
  4011f5:	0f 84 09 01 00 00    	je     401304 <_Unwind_Resume@plt+0x754>
  4011fb:	4c 63 c7             	movslq %edi,%r8
  4011fe:	49 c1 e0 02          	shl    $0x2,%r8
  401202:	4b 8d 04 02          	lea    (%r10,%r8,1),%rax
  401206:	8b 10                	mov    (%rax),%edx
  401208:	48 89 04 24          	mov    %rax,(%rsp)
  40120c:	48 89 f0             	mov    %rsi,%rax
  40120f:	39 d7                	cmp    %edx,%edi
  401211:	0f 84 eb 00 00 00    	je     401302 <_Unwind_Resume@plt+0x752>
  401217:	4c 63 c2             	movslq %edx,%r8
  40121a:	49 c1 e0 02          	shl    $0x2,%r8
  40121e:	4b 8d 04 02          	lea    (%r10,%r8,1),%rax
  401222:	8b 38                	mov    (%rax),%edi
  401224:	48 89 44 24 08       	mov    %rax,0x8(%rsp)
  401229:	48 89 f0             	mov    %rsi,%rax
  40122c:	39 fa                	cmp    %edi,%edx
  40122e:	0f 84 c8 00 00 00    	je     4012fc <_Unwind_Resume@plt+0x74c>
  401234:	4c 63 c7             	movslq %edi,%r8
  401237:	49 c1 e0 02          	shl    $0x2,%r8
  40123b:	4b 8d 04 02          	lea    (%r10,%r8,1),%rax
  40123f:	8b 10                	mov    (%rax),%edx
  401241:	48 89 44 24 10       	mov    %rax,0x10(%rsp)
  401246:	48 89 f0             	mov    %rsi,%rax
  401249:	39 d7                	cmp    %edx,%edi
  40124b:	0f 84 a4 00 00 00    	je     4012f5 <_Unwind_Resume@plt+0x745>
  401251:	4c 63 c2             	movslq %edx,%r8
  401254:	49 c1 e0 02          	shl    $0x2,%r8
  401258:	4b 8d 04 02          	lea    (%r10,%r8,1),%rax
  40125c:	8b 38                	mov    (%rax),%edi
  40125e:	48 89 44 24 18       	mov    %rax,0x18(%rsp)
  401263:	48 89 f0             	mov    %rsi,%rax
  401266:	39 fa                	cmp    %edi,%edx
  401268:	0f 84 80 00 00 00    	je     4012ee <_Unwind_Resume@plt+0x73e>
  40126e:	4c 63 c7             	movslq %edi,%r8
  401271:	49 c1 e0 02          	shl    $0x2,%r8
  401275:	4b 8d 04 02          	lea    (%r10,%r8,1),%rax
  401279:	8b 10                	mov    (%rax),%edx
  40127b:	48 89 44 24 20       	mov    %rax,0x20(%rsp)
  401280:	48 89 f0             	mov    %rsi,%rax
  401283:	39 d7                	cmp    %edx,%edi
  401285:	74 60                	je     4012e7 <_Unwind_Resume@plt+0x737>
  401287:	4c 63 c2             	movslq %edx,%r8
  40128a:	49 c1 e0 02          	shl    $0x2,%r8
  40128e:	4d 01 c2             	add    %r8,%r10
  401291:	41 8b 32             	mov    (%r10),%esi
  401294:	4c 89 54 24 48       	mov    %r10,0x48(%rsp)
  401299:	39 f2                	cmp    %esi,%edx
  40129b:	74 43                	je     4012e0 <_Unwind_Resume@plt+0x730>
  40129d:	4c 89 df             	mov    %r11,%rdi
  4012a0:	4c 89 4c 24 40       	mov    %r9,0x40(%rsp)
  4012a5:	48 89 4c 24 38       	mov    %rcx,0x38(%rsp)
  4012aa:	4c 89 5c 24 30       	mov    %r11,0x30(%rsp)
  4012af:	e8 1c 0d 00 00       	callq  401fd0 <_Unwind_Resume@plt+0x1420>
  4012b4:	4c 8b 54 24 48       	mov    0x48(%rsp),%r10
  4012b9:	4c 8b bc 24 c0 00 00 	mov    0xc0(%rsp),%r15
  4012c0:	00 
  4012c1:	4c 63 c0             	movslq %eax,%r8
  4012c4:	4c 8b 4c 24 40       	mov    0x40(%rsp),%r9
  4012c9:	48 8b 4c 24 38       	mov    0x38(%rsp),%rcx
  4012ce:	89 c2                	mov    %eax,%edx
  4012d0:	4c 8b 5c 24 30       	mov    0x30(%rsp),%r11
  4012d5:	49 c1 e0 02          	shl    $0x2,%r8
  4012d9:	41 89 02             	mov    %eax,(%r10)
  4012dc:	4b 8d 04 37          	lea    (%r15,%r14,1),%rax
  4012e0:	48 8b 7c 24 20       	mov    0x20(%rsp),%rdi
  4012e5:	89 17                	mov    %edx,(%rdi)
  4012e7:	48 8b 7c 24 18       	mov    0x18(%rsp),%rdi
  4012ec:	89 17                	mov    %edx,(%rdi)
  4012ee:	48 8b 7c 24 10       	mov    0x10(%rsp),%rdi
  4012f3:	89 17                	mov    %edx,(%rdi)
  4012f5:	48 8b 7c 24 08       	mov    0x8(%rsp),%rdi
  4012fa:	89 17                	mov    %edx,(%rdi)
  4012fc:	48 8b 3c 24          	mov    (%rsp),%rdi
  401300:	89 17                	mov    %edx,(%rdi)
  401302:	89 11                	mov    %edx,(%rcx)
  401304:	41 89 55 00          	mov    %edx,0x0(%r13)
  401308:	41 89 14 24          	mov    %edx,(%r12)
  40130c:	89 55 00             	mov    %edx,0x0(%rbp)
  40130f:	8b 00                	mov    (%rax),%eax
  401311:	49 8b 53 18          	mov    0x18(%r11),%rdx
  401315:	42 39 04 02          	cmp    %eax,(%rdx,%r8,1)
  401319:	0f 85 3c 0b 00 00    	jne    401e5b <_Unwind_Resume@plt+0x12ab>
  40131f:	48 83 c3 01          	add    $0x1,%rbx
  401323:	49 83 c6 04          	add    $0x4,%r14
  401327:	48 83 fb 14          	cmp    $0x14,%rbx
  40132b:	0f 85 3f fe ff ff    	jne    401170 <_Unwind_Resume@plt+0x5c0>
  401331:	49 83 c1 14          	add    $0x14,%r9
  401335:	49 81 f9 90 01 00 00 	cmp    $0x190,%r9
  40133c:	0f 85 1e fe ff ff    	jne    401160 <_Unwind_Resume@plt+0x5b0>
  401342:	48 8d 84 24 e8 00 00 	lea    0xe8(%rsp),%rax
  401349:	00 
  40134a:	4d 89 f9             	mov    %r15,%r9
  40134d:	c7 84 24 e8 00 00 00 	movl   $0x0,0xe8(%rsp)
  401354:	00 00 00 00 
  401358:	4d 89 df             	mov    %r11,%r15
  40135b:	48 c7 84 24 f0 00 00 	movq   $0x0,0xf0(%rsp)
  401362:	00 00 00 00 00 
  401367:	48 c7 84 24 08 01 00 	movq   $0x0,0x108(%rsp)
  40136e:	00 00 00 00 00 
  401373:	48 89 84 24 f8 00 00 	mov    %rax,0xf8(%rsp)
  40137a:	00 
  40137b:	48 89 84 24 00 01 00 	mov    %rax,0x100(%rsp)
  401382:	00 
  401383:	45 31 e4             	xor    %r12d,%r12d
  401386:	45 31 ed             	xor    %r13d,%r13d
  401389:	0f 1f 80 00 00 00 00 	nopl   0x0(%rax)
  401390:	4c 89 ed             	mov    %r13,%rbp
  401393:	31 db                	xor    %ebx,%ebx
  401395:	eb 23                	jmp    4013ba <_Unwind_Resume@plt+0x80a>
  401397:	66 0f 1f 84 00 00 00 	nopw   0x0(%rax,%rax,1)
  40139e:	00 00 
  4013a0:	48 83 c3 01          	add    $0x1,%rbx
  4013a4:	48 83 c5 04          	add    $0x4,%rbp
  4013a8:	48 83 fb 14          	cmp    $0x14,%rbx
  4013ac:	0f 84 06 05 00 00    	je     4018b8 <_Unwind_Resume@plt+0xd08>
  4013b2:	4c 8b 8c 24 c0 00 00 	mov    0xc0(%rsp),%r9
  4013b9:	00 
  4013ba:	41 8b 04 29          	mov    (%r9,%rbp,1),%eax
  4013be:	41 8d 34 1c          	lea    (%r12,%rbx,1),%esi
  4013c2:	85 c0                	test   %eax,%eax
  4013c4:	74 da                	je     4013a0 <_Unwind_Resume@plt+0x7f0>
  4013c6:	49 8b 3f             	mov    (%r15),%rdi
  4013c9:	4c 8d 34 2f          	lea    (%rdi,%rbp,1),%r14
  4013cd:	41 8b 06             	mov    (%r14),%eax
  4013d0:	39 f0                	cmp    %esi,%eax
  4013d2:	0f 84 0c 01 00 00    	je     4014e4 <_Unwind_Resume@plt+0x934>
  4013d8:	48 63 d0             	movslq %eax,%rdx
  4013db:	4c 8d 0c 97          	lea    (%rdi,%rdx,4),%r9
  4013df:	41 8b 31             	mov    (%r9),%esi
  4013e2:	39 f0                	cmp    %esi,%eax
  4013e4:	0f 84 f7 00 00 00    	je     4014e1 <_Unwind_Resume@plt+0x931>
  4013ea:	48 63 c6             	movslq %esi,%rax
  4013ed:	48 8d 14 87          	lea    (%rdi,%rax,4),%rdx
  4013f1:	8b 02                	mov    (%rdx),%eax
  4013f3:	39 c6                	cmp    %eax,%esi
  4013f5:	0f 84 e3 00 00 00    	je     4014de <_Unwind_Resume@plt+0x92e>
  4013fb:	48 63 c8             	movslq %eax,%rcx
  4013fe:	48 8d 0c 8f          	lea    (%rdi,%rcx,4),%rcx
  401402:	8b 31                	mov    (%rcx),%esi
  401404:	39 f0                	cmp    %esi,%eax
  401406:	0f 84 d0 00 00 00    	je     4014dc <_Unwind_Resume@plt+0x92c>
  40140c:	48 63 c6             	movslq %esi,%rax
  40140f:	4c 8d 04 87          	lea    (%rdi,%rax,4),%r8
  401413:	41 8b 00             	mov    (%r8),%eax
  401416:	39 c6                	cmp    %eax,%esi
  401418:	0f 84 bc 00 00 00    	je     4014da <_Unwind_Resume@plt+0x92a>
  40141e:	48 63 f0             	movslq %eax,%rsi
  401421:	48 8d 34 b7          	lea    (%rdi,%rsi,4),%rsi
  401425:	48 89 34 24          	mov    %rsi,(%rsp)
  401429:	8b 36                	mov    (%rsi),%esi
  40142b:	39 f0                	cmp    %esi,%eax
  40142d:	0f 84 a4 00 00 00    	je     4014d7 <_Unwind_Resume@plt+0x927>
  401433:	48 63 c6             	movslq %esi,%rax
  401436:	48 8d 04 87          	lea    (%rdi,%rax,4),%rax
  40143a:	48 89 44 24 08       	mov    %rax,0x8(%rsp)
  40143f:	8b 00                	mov    (%rax),%eax
  401441:	39 c6                	cmp    %eax,%esi
  401443:	0f 84 88 00 00 00    	je     4014d1 <_Unwind_Resume@plt+0x921>
  401449:	48 63 f0             	movslq %eax,%rsi
  40144c:	4c 8d 1c b7          	lea    (%rdi,%rsi,4),%r11
  401450:	41 8b 33             	mov    (%r11),%esi
  401453:	39 f0                	cmp    %esi,%eax
  401455:	74 73                	je     4014ca <_Unwind_Resume@plt+0x91a>
  401457:	48 63 c6             	movslq %esi,%rax
  40145a:	4c 8d 14 87          	lea    (%rdi,%rax,4),%r10
  40145e:	41 8b 02             	mov    (%r10),%eax
  401461:	39 c6                	cmp    %eax,%esi
  401463:	74 62                	je     4014c7 <_Unwind_Resume@plt+0x917>
  401465:	48 63 f0             	movslq %eax,%rsi
  401468:	48 8d 3c b7          	lea    (%rdi,%rsi,4),%rdi
  40146c:	8b 37                	mov    (%rdi),%esi
  40146e:	48 89 7c 24 10       	mov    %rdi,0x10(%rsp)
  401473:	39 f0                	cmp    %esi,%eax
  401475:	74 4b                	je     4014c2 <_Unwind_Resume@plt+0x912>
  401477:	4c 89 ff             	mov    %r15,%rdi
  40147a:	4c 89 54 24 48       	mov    %r10,0x48(%rsp)
  40147f:	4c 89 5c 24 40       	mov    %r11,0x40(%rsp)
  401484:	4c 89 44 24 38       	mov    %r8,0x38(%rsp)
  401489:	48 89 4c 24 30       	mov    %rcx,0x30(%rsp)
  40148e:	48 89 54 24 20       	mov    %rdx,0x20(%rsp)
  401493:	4c 89 4c 24 18       	mov    %r9,0x18(%rsp)
  401498:	e8 33 0b 00 00       	callq  401fd0 <_Unwind_Resume@plt+0x1420>
  40149d:	48 8b 7c 24 10       	mov    0x10(%rsp),%rdi
  4014a2:	4c 8b 54 24 48       	mov    0x48(%rsp),%r10
  4014a7:	4c 8b 5c 24 40       	mov    0x40(%rsp),%r11
  4014ac:	4c 8b 44 24 38       	mov    0x38(%rsp),%r8
  4014b1:	48 8b 4c 24 30       	mov    0x30(%rsp),%rcx
  4014b6:	48 8b 54 24 20       	mov    0x20(%rsp),%rdx
  4014bb:	4c 8b 4c 24 18       	mov    0x18(%rsp),%r9
  4014c0:	89 07                	mov    %eax,(%rdi)
  4014c2:	41 89 02             	mov    %eax,(%r10)
  4014c5:	89 c6                	mov    %eax,%esi
  4014c7:	41 89 33             	mov    %esi,(%r11)
  4014ca:	48 8b 44 24 08       	mov    0x8(%rsp),%rax
  4014cf:	89 30                	mov    %esi,(%rax)
  4014d1:	48 8b 04 24          	mov    (%rsp),%rax
  4014d5:	89 30                	mov    %esi,(%rax)
  4014d7:	41 89 30             	mov    %esi,(%r8)
  4014da:	89 31                	mov    %esi,(%rcx)
  4014dc:	89 32                	mov    %esi,(%rdx)
  4014de:	41 89 31             	mov    %esi,(%r9)
  4014e1:	41 89 36             	mov    %esi,(%r14)
  4014e4:	48 8b 84 24 f0 00 00 	mov    0xf0(%rsp),%rax
  4014eb:	00 
  4014ec:	89 b4 24 a0 00 00 00 	mov    %esi,0xa0(%rsp)
  4014f3:	48 85 c0             	test   %rax,%rax
  4014f6:	0f 84 e4 03 00 00    	je     4018e0 <_Unwind_Resume@plt+0xd30>
  4014fc:	48 8d 94 24 e8 00 00 	lea    0xe8(%rsp),%rdx
  401503:	00 
  401504:	eb 16                	jmp    40151c <_Unwind_Resume@plt+0x96c>
  401506:	66 2e 0f 1f 84 00 00 	nopw   %cs:0x0(%rax,%rax,1)
  40150d:	00 00 00 
  401510:	48 89 c2             	mov    %rax,%rdx
  401513:	48 8b 40 10          	mov    0x10(%rax),%rax
  401517:	48 85 c0             	test   %rax,%rax
  40151a:	74 0e                	je     40152a <_Unwind_Resume@plt+0x97a>
  40151c:	3b 70 20             	cmp    0x20(%rax),%esi
  40151f:	7e ef                	jle    401510 <_Unwind_Resume@plt+0x960>
  401521:	48 8b 40 18          	mov    0x18(%rax),%rax
  401525:	48 85 c0             	test   %rax,%rax
  401528:	75 f2                	jne    40151c <_Unwind_Resume@plt+0x96c>
  40152a:	48 8d 84 24 e8 00 00 	lea    0xe8(%rsp),%rax
  401531:	00 
  401532:	48 39 c2             	cmp    %rax,%rdx
  401535:	0f 84 a5 03 00 00    	je     4018e0 <_Unwind_Resume@plt+0xd30>
  40153b:	3b 72 20             	cmp    0x20(%rdx),%esi
  40153e:	0f 8c 9c 03 00 00    	jl     4018e0 <_Unwind_Resume@plt+0xd30>
  401544:	e8 67 0a 00 00       	callq  401fb0 <_Unwind_Resume@plt+0x1400>
  401549:	0f 1f 80 00 00 00 00 	nopl   0x0(%rax)
  401550:	48 8b 44 24 08       	mov    0x8(%rsp),%rax
  401555:	44 89 24 24          	mov    %r12d,(%rsp)
  401559:	48 8b 38             	mov    (%rax),%rdi
  40155c:	4a 8d 14 3f          	lea    (%rdi,%r15,1),%rdx
  401560:	8b 32                	mov    (%rdx),%esi
  401562:	44 39 e6             	cmp    %r12d,%esi
  401565:	0f 84 82 01 00 00    	je     4016ed <_Unwind_Resume@plt+0xb3d>
  40156b:	48 63 c6             	movslq %esi,%rax
  40156e:	89 34 24             	mov    %esi,(%rsp)
  401571:	48 8d 04 87          	lea    (%rdi,%rax,4),%rax
  401575:	48 89 44 24 10       	mov    %rax,0x10(%rsp)
  40157a:	8b 00                	mov    (%rax),%eax
  40157c:	39 c6                	cmp    %eax,%esi
  40157e:	0f 84 64 01 00 00    	je     4016e8 <_Unwind_Resume@plt+0xb38>
  401584:	48 63 f0             	movslq %eax,%rsi
  401587:	48 8d 34 b7          	lea    (%rdi,%rsi,4),%rsi
  40158b:	48 89 34 24          	mov    %rsi,(%rsp)
  40158f:	8b 36                	mov    (%rsi),%esi
  401591:	39 f0                	cmp    %esi,%eax
  401593:	0f 84 45 01 00 00    	je     4016de <_Unwind_Resume@plt+0xb2e>
  401599:	48 63 c6             	movslq %esi,%rax
  40159c:	48 8d 04 87          	lea    (%rdi,%rax,4),%rax
  4015a0:	48 89 44 24 18       	mov    %rax,0x18(%rsp)
  4015a5:	8b 00                	mov    (%rax),%eax
  4015a7:	39 c6                	cmp    %eax,%esi
  4015a9:	0f 84 29 01 00 00    	je     4016d8 <_Unwind_Resume@plt+0xb28>
  4015af:	48 63 f0             	movslq %eax,%rsi
  4015b2:	48 8d 34 b7          	lea    (%rdi,%rsi,4),%rsi
  4015b6:	48 89 74 24 20       	mov    %rsi,0x20(%rsp)
  4015bb:	8b 36                	mov    (%rsi),%esi
  4015bd:	39 f0                	cmp    %esi,%eax
  4015bf:	0f 84 0c 01 00 00    	je     4016d1 <_Unwind_Resume@plt+0xb21>
  4015c5:	48 63 c6             	movslq %esi,%rax
  4015c8:	48 8d 04 87          	lea    (%rdi,%rax,4),%rax
  4015cc:	48 89 44 24 30       	mov    %rax,0x30(%rsp)
  4015d1:	8b 00                	mov    (%rax),%eax
  4015d3:	39 c6                	cmp    %eax,%esi
  4015d5:	0f 84 ef 00 00 00    	je     4016ca <_Unwind_Resume@plt+0xb1a>
  4015db:	48 63 f0             	movslq %eax,%rsi
  4015de:	48 8d 34 b7          	lea    (%rdi,%rsi,4),%rsi
  4015e2:	48 89 74 24 38       	mov    %rsi,0x38(%rsp)
  4015e7:	8b 36                	mov    (%rsi),%esi
  4015e9:	39 f0                	cmp    %esi,%eax
  4015eb:	0f 84 d2 00 00 00    	je     4016c3 <_Unwind_Resume@plt+0xb13>
  4015f1:	48 63 c6             	movslq %esi,%rax
  4015f4:	48 8d 04 87          	lea    (%rdi,%rax,4),%rax
  4015f8:	48 89 44 24 48       	mov    %rax,0x48(%rsp)
  4015fd:	8b 00                	mov    (%rax),%eax
  4015ff:	39 c6                	cmp    %eax,%esi
  401601:	0f 84 b5 00 00 00    	je     4016bc <_Unwind_Resume@plt+0xb0c>
  401607:	48 63 f0             	movslq %eax,%rsi
  40160a:	48 8d 34 b7          	lea    (%rdi,%rsi,4),%rsi
  40160e:	48 89 74 24 50       	mov    %rsi,0x50(%rsp)
  401613:	8b 36                	mov    (%rsi),%esi
  401615:	39 f0                	cmp    %esi,%eax
  401617:	0f 84 98 00 00 00    	je     4016b5 <_Unwind_Resume@plt+0xb05>
  40161d:	48 63 c6             	movslq %esi,%rax
  401620:	89 74 24 40          	mov    %esi,0x40(%rsp)
  401624:	48 8d 34 87          	lea    (%rdi,%rax,4),%rsi
  401628:	8b 44 24 40          	mov    0x40(%rsp),%eax
  40162c:	48 89 74 24 58       	mov    %rsi,0x58(%rsp)
  401631:	8b 36                	mov    (%rsi),%esi
  401633:	39 f0                	cmp    %esi,%eax
  401635:	74 77                	je     4016ae <_Unwind_Resume@plt+0xafe>
  401637:	48 8b 7c 24 08       	mov    0x8(%rsp),%rdi
  40163c:	4c 89 94 24 98 00 00 	mov    %r10,0x98(%rsp)
  401643:	00 
  401644:	44 89 84 24 90 00 00 	mov    %r8d,0x90(%rsp)
  40164b:	00 
  40164c:	44 89 8c 24 8c 00 00 	mov    %r9d,0x8c(%rsp)
  401653:	00 
  401654:	4c 89 9c 24 80 00 00 	mov    %r11,0x80(%rsp)
  40165b:	00 
  40165c:	48 89 54 24 60       	mov    %rdx,0x60(%rsp)
  401661:	66 0f 7f 44 24 70    	movdqa %xmm0,0x70(%rsp)
  401667:	89 4c 24 40          	mov    %ecx,0x40(%rsp)
  40166b:	e8 60 09 00 00       	callq  401fd0 <_Unwind_Resume@plt+0x1420>
  401670:	48 8b 7c 24 08       	mov    0x8(%rsp),%rdi
  401675:	48 8b 74 24 58       	mov    0x58(%rsp),%rsi
  40167a:	4c 8b 94 24 98 00 00 	mov    0x98(%rsp),%r10
  401681:	00 
  401682:	44 8b 84 24 90 00 00 	mov    0x90(%rsp),%r8d
  401689:	00 
  40168a:	44 8b 8c 24 8c 00 00 	mov    0x8c(%rsp),%r9d
  401691:	00 
  401692:	4c 8b 9c 24 80 00 00 	mov    0x80(%rsp),%r11
  401699:	00 
  40169a:	48 8b 3f             	mov    (%rdi),%rdi
  40169d:	48 8b 54 24 60       	mov    0x60(%rsp),%rdx
  4016a2:	8b 4c 24 40          	mov    0x40(%rsp),%ecx
  4016a6:	89 06                	mov    %eax,(%rsi)
  4016a8:	66 0f 6f 44 24 70    	movdqa 0x70(%rsp),%xmm0
  4016ae:	48 8b 74 24 50       	mov    0x50(%rsp),%rsi
  4016b3:	89 06                	mov    %eax,(%rsi)
  4016b5:	48 8b 74 24 48       	mov    0x48(%rsp),%rsi
  4016ba:	89 06                	mov    %eax,(%rsi)
  4016bc:	48 8b 74 24 38       	mov    0x38(%rsp),%rsi
  4016c1:	89 06                	mov    %eax,(%rsi)
  4016c3:	48 8b 74 24 30       	mov    0x30(%rsp),%rsi
  4016c8:	89 06                	mov    %eax,(%rsi)
  4016ca:	48 8b 74 24 20       	mov    0x20(%rsp),%rsi
  4016cf:	89 06                	mov    %eax,(%rsi)
  4016d1:	48 8b 74 24 18       	mov    0x18(%rsp),%rsi
  4016d6:	89 06                	mov    %eax,(%rsi)
  4016d8:	48 8b 34 24          	mov    (%rsp),%rsi
  4016dc:	89 06                	mov    %eax,(%rsi)
  4016de:	48 8b 74 24 10       	mov    0x10(%rsp),%rsi
  4016e3:	89 04 24             	mov    %eax,(%rsp)
  4016e6:	89 06                	mov    %eax,(%rsi)
  4016e8:	8b 04 24             	mov    (%rsp),%eax
  4016eb:	89 02                	mov    %eax,(%rdx)
  4016ed:	48 8d 2c af          	lea    (%rdi,%rbp,4),%rbp
  4016f1:	8b 75 00             	mov    0x0(%rbp),%esi
  4016f4:	39 f1                	cmp    %esi,%ecx
  4016f6:	0f 84 5c 01 00 00    	je     401858 <_Unwind_Resume@plt+0xca8>
  4016fc:	48 63 c6             	movslq %esi,%rax
  4016ff:	89 f1                	mov    %esi,%ecx
  401701:	48 8d 14 87          	lea    (%rdi,%rax,4),%rdx
  401705:	8b 02                	mov    (%rdx),%eax
  401707:	39 c6                	cmp    %eax,%esi
  401709:	0f 84 46 01 00 00    	je     401855 <_Unwind_Resume@plt+0xca5>
  40170f:	48 63 c8             	movslq %eax,%rcx
  401712:	48 8d 0c 8f          	lea    (%rdi,%rcx,4),%rcx
  401716:	8b 31                	mov    (%rcx),%esi
  401718:	39 f0                	cmp    %esi,%eax
  40171a:	0f 84 31 01 00 00    	je     401851 <_Unwind_Resume@plt+0xca1>
  401720:	48 63 c6             	movslq %esi,%rax
  401723:	48 8d 04 87          	lea    (%rdi,%rax,4),%rax
  401727:	48 89 44 24 10       	mov    %rax,0x10(%rsp)
  40172c:	8b 00                	mov    (%rax),%eax
  40172e:	39 c6                	cmp    %eax,%esi
  401730:	0f 84 19 01 00 00    	je     40184f <_Unwind_Resume@plt+0xc9f>
  401736:	48 63 f0             	movslq %eax,%rsi
  401739:	48 8d 34 b7          	lea    (%rdi,%rsi,4),%rsi
  40173d:	48 89 74 24 18       	mov    %rsi,0x18(%rsp)
  401742:	8b 36                	mov    (%rsi),%esi
  401744:	39 f0                	cmp    %esi,%eax
  401746:	0f 84 fc 00 00 00    	je     401848 <_Unwind_Resume@plt+0xc98>
  40174c:	48 63 c6             	movslq %esi,%rax
  40174f:	48 8d 04 87          	lea    (%rdi,%rax,4),%rax
  401753:	48 89 44 24 20       	mov    %rax,0x20(%rsp)
  401758:	8b 00                	mov    (%rax),%eax
  40175a:	39 c6                	cmp    %eax,%esi
  40175c:	0f 84 df 00 00 00    	je     401841 <_Unwind_Resume@plt+0xc91>
  401762:	48 63 f0             	movslq %eax,%rsi
  401765:	48 8d 34 b7          	lea    (%rdi,%rsi,4),%rsi
  401769:	48 89 74 24 30       	mov    %rsi,0x30(%rsp)
  40176e:	8b 36                	mov    (%rsi),%esi
  401770:	39 f0                	cmp    %esi,%eax
  401772:	0f 84 c2 00 00 00    	je     40183a <_Unwind_Resume@plt+0xc8a>
  401778:	48 63 c6             	movslq %esi,%rax
  40177b:	48 8d 04 87          	lea    (%rdi,%rax,4),%rax
  40177f:	48 89 44 24 38       	mov    %rax,0x38(%rsp)
  401784:	8b 00                	mov    (%rax),%eax
  401786:	39 c6                	cmp    %eax,%esi
  401788:	0f 84 a5 00 00 00    	je     401833 <_Unwind_Resume@plt+0xc83>
  40178e:	48 63 f0             	movslq %eax,%rsi
  401791:	48 8d 34 b7          	lea    (%rdi,%rsi,4),%rsi
  401795:	48 89 74 24 40       	mov    %rsi,0x40(%rsp)
  40179a:	8b 36                	mov    (%rsi),%esi
  40179c:	39 f0                	cmp    %esi,%eax
  40179e:	0f 84 88 00 00 00    	je     40182c <_Unwind_Resume@plt+0xc7c>
  4017a4:	48 63 c6             	movslq %esi,%rax
  4017a7:	48 8d 04 87          	lea    (%rdi,%rax,4),%rax
  4017ab:	8b 38                	mov    (%rax),%edi
  4017ad:	48 89 44 24 48       	mov    %rax,0x48(%rsp)
  4017b2:	89 f0                	mov    %esi,%eax
  4017b4:	39 fe                	cmp    %edi,%esi
  4017b6:	74 6d                	je     401825 <_Unwind_Resume@plt+0xc75>
  4017b8:	89 fe                	mov    %edi,%esi
  4017ba:	48 8b 7c 24 08       	mov    0x8(%rsp),%rdi
  4017bf:	4c 89 94 24 90 00 00 	mov    %r10,0x90(%rsp)
  4017c6:	00 
  4017c7:	44 89 84 24 8c 00 00 	mov    %r8d,0x8c(%rsp)
  4017ce:	00 
  4017cf:	44 89 8c 24 80 00 00 	mov    %r9d,0x80(%rsp)
  4017d6:	00 
  4017d7:	4c 89 5c 24 70       	mov    %r11,0x70(%rsp)
  4017dc:	48 89 4c 24 58       	mov    %rcx,0x58(%rsp)
  4017e1:	66 0f 7f 44 24 60    	movdqa %xmm0,0x60(%rsp)
  4017e7:	48 89 54 24 50       	mov    %rdx,0x50(%rsp)
  4017ec:	e8 df 07 00 00       	callq  401fd0 <_Unwind_Resume@plt+0x1420>
  4017f1:	48 8b 7c 24 48       	mov    0x48(%rsp),%rdi
  4017f6:	4c 8b 94 24 90 00 00 	mov    0x90(%rsp),%r10
  4017fd:	00 
  4017fe:	44 8b 84 24 8c 00 00 	mov    0x8c(%rsp),%r8d
  401805:	00 
  401806:	44 8b 8c 24 80 00 00 	mov    0x80(%rsp),%r9d
  40180d:	00 
  40180e:	4c 8b 5c 24 70       	mov    0x70(%rsp),%r11
  401813:	48 8b 4c 24 58       	mov    0x58(%rsp),%rcx
  401818:	48 8b 54 24 50       	mov    0x50(%rsp),%rdx
  40181d:	89 07                	mov    %eax,(%rdi)
  40181f:	66 0f 6f 44 24 60    	movdqa 0x60(%rsp),%xmm0
  401825:	48 8b 7c 24 40       	mov    0x40(%rsp),%rdi
  40182a:	89 07                	mov    %eax,(%rdi)
  40182c:	48 8b 7c 24 38       	mov    0x38(%rsp),%rdi
  401831:	89 07                	mov    %eax,(%rdi)
  401833:	48 8b 7c 24 30       	mov    0x30(%rsp),%rdi
  401838:	89 07                	mov    %eax,(%rdi)
  40183a:	48 8b 7c 24 20       	mov    0x20(%rsp),%rdi
  40183f:	89 07                	mov    %eax,(%rdi)
  401841:	48 8b 7c 24 18       	mov    0x18(%rsp),%rdi
  401846:	89 07                	mov    %eax,(%rdi)
  401848:	48 8b 7c 24 10       	mov    0x10(%rsp),%rdi
  40184d:	89 07                	mov    %eax,(%rdi)
  40184f:	89 01                	mov    %eax,(%rcx)
  401851:	89 02                	mov    %eax,(%rdx)
  401853:	89 c1                	mov    %eax,%ecx
  401855:	89 4d 00             	mov    %ecx,0x0(%rbp)
  401858:	8b 04 24             	mov    (%rsp),%eax
  40185b:	39 c8                	cmp    %ecx,%eax
  40185d:	0f 84 a6 f8 ff ff    	je     401109 <_Unwind_Resume@plt+0x559>
  401863:	48 8b 7c 24 08       	mov    0x8(%rsp),%rdi
  401868:	48 63 e8             	movslq %eax,%rbp
  40186b:	48 63 c1             	movslq %ecx,%rax
  40186e:	48 c1 e5 02          	shl    $0x2,%rbp
  401872:	48 c1 e0 02          	shl    $0x2,%rax
  401876:	48 8b 77 18          	mov    0x18(%rdi),%rsi
  40187a:	48 8d 3c 2e          	lea    (%rsi,%rbp,1),%rdi
  40187e:	48 01 c6             	add    %rax,%rsi
  401881:	8b 16                	mov    (%rsi),%edx
  401883:	39 17                	cmp    %edx,(%rdi)
  401885:	7f 29                	jg     4018b0 <_Unwind_Resume@plt+0xd00>
  401887:	48 89 f2             	mov    %rsi,%rdx
  40188a:	48 89 e8             	mov    %rbp,%rax
  40188d:	48 89 fe             	mov    %rdi,%rsi
  401890:	89 0c 24             	mov    %ecx,(%rsp)
  401893:	48 8b 7c 24 08       	mov    0x8(%rsp),%rdi
  401898:	48 8b 0f             	mov    (%rdi),%rcx
  40189b:	8b 3c 24             	mov    (%rsp),%edi
  40189e:	89 3c 01             	mov    %edi,(%rcx,%rax,1)
  4018a1:	8b 06                	mov    (%rsi),%eax
  4018a3:	01 02                	add    %eax,(%rdx)
  4018a5:	e9 5f f8 ff ff       	jmpq   401109 <_Unwind_Resume@plt+0x559>
  4018aa:	66 0f 1f 44 00 00    	nopw   0x0(%rax,%rax,1)
  4018b0:	48 89 fa             	mov    %rdi,%rdx
  4018b3:	eb de                	jmp    401893 <_Unwind_Resume@plt+0xce3>
  4018b5:	0f 1f 00             	nopl   (%rax)
  4018b8:	49 83 c5 50          	add    $0x50,%r13
  4018bc:	41 83 c4 14          	add    $0x14,%r12d
  4018c0:	49 81 fd 40 06 00 00 	cmp    $0x640,%r13
  4018c7:	74 31                	je     4018fa <_Unwind_Resume@plt+0xd4a>
  4018c9:	4c 8b 8c 24 c0 00 00 	mov    0xc0(%rsp),%r9
  4018d0:	00 
  4018d1:	e9 ba fa ff ff       	jmpq   401390 <_Unwind_Resume@plt+0x7e0>
  4018d6:	66 2e 0f 1f 84 00 00 	nopw   %cs:0x0(%rax,%rax,1)
  4018dd:	00 00 00 
  4018e0:	48 8d b4 24 a0 00 00 	lea    0xa0(%rsp),%rsi
  4018e7:	00 
  4018e8:	48 8d bc 24 e0 00 00 	lea    0xe0(%rsp),%rdi
  4018ef:	00 
  4018f0:	e8 2b 09 00 00       	callq  402220 <_Unwind_Resume@plt+0x1670>
  4018f5:	e9 a6 fa ff ff       	jmpq   4013a0 <_Unwind_Resume@plt+0x7f0>
  4018fa:	31 ed                	xor    %ebp,%ebp
  4018fc:	66 41 bd 01 00       	mov    $0x1,%r13w
  401901:	4d 89 fb             	mov    %r15,%r11
  401904:	0f 1f 40 00          	nopl   0x0(%rax)
  401908:	4c 8d 24 ad 00 00 00 	lea    0x0(,%rbp,4),%r12
  40190f:	00 
  401910:	31 db                	xor    %ebx,%ebx
  401912:	eb 16                	jmp    40192a <_Unwind_Resume@plt+0xd7a>
  401914:	0f 1f 40 00          	nopl   0x0(%rax)
  401918:	48 83 c3 01          	add    $0x1,%rbx
  40191c:	49 83 c4 04          	add    $0x4,%r12
  401920:	48 83 fb 14          	cmp    $0x14,%rbx
  401924:	0f 84 8e 01 00 00    	je     401ab8 <_Unwind_Resume@plt+0xf08>
  40192a:	48 8d 04 2b          	lea    (%rbx,%rbp,1),%rax
  40192e:	8d 0c 2b             	lea    (%rbx,%rbp,1),%ecx
  401931:	4c 89 ea             	mov    %r13,%rdx
  401934:	48 c1 e8 06          	shr    $0x6,%rax
  401938:	48 d3 e2             	shl    %cl,%rdx
  40193b:	48 85 94 c4 10 01 00 	test   %rdx,0x110(%rsp,%rax,8)
  401942:	00 
  401943:	75 d3                	jne    401918 <_Unwind_Resume@plt+0xd68>
  401945:	49 8b 03             	mov    (%r11),%rax
  401948:	4e 8d 34 20          	lea    (%rax,%r12,1),%r14
  40194c:	41 8b 16             	mov    (%r14),%edx
  40194f:	39 ca                	cmp    %ecx,%edx
  401951:	0f 84 0e 01 00 00    	je     401a65 <_Unwind_Resume@plt+0xeb5>
  401957:	48 63 ca             	movslq %edx,%rcx
  40195a:	4c 8d 3c 88          	lea    (%rax,%rcx,4),%r15
  40195e:	41 8b 0f             	mov    (%r15),%ecx
  401961:	39 ca                	cmp    %ecx,%edx
  401963:	0f 84 f9 00 00 00    	je     401a62 <_Unwind_Resume@plt+0xeb2>
  401969:	48 63 d1             	movslq %ecx,%rdx
  40196c:	48 8d 14 90          	lea    (%rax,%rdx,4),%rdx
  401970:	8b 32                	mov    (%rdx),%esi
  401972:	39 f1                	cmp    %esi,%ecx
  401974:	0f 84 e5 00 00 00    	je     401a5f <_Unwind_Resume@plt+0xeaf>
  40197a:	48 63 ce             	movslq %esi,%rcx
  40197d:	4c 8d 04 88          	lea    (%rax,%rcx,4),%r8
  401981:	41 8b 08             	mov    (%r8),%ecx
  401984:	39 ce                	cmp    %ecx,%esi
  401986:	0f 84 d1 00 00 00    	je     401a5d <_Unwind_Resume@plt+0xead>
  40198c:	48 63 f1             	movslq %ecx,%rsi
  40198f:	4c 8d 0c b0          	lea    (%rax,%rsi,4),%r9
  401993:	41 8b 31             	mov    (%r9),%esi
  401996:	39 f1                	cmp    %esi,%ecx
  401998:	0f 84 bc 00 00 00    	je     401a5a <_Unwind_Resume@plt+0xeaa>
  40199e:	48 63 ce             	movslq %esi,%rcx
  4019a1:	4c 8d 14 88          	lea    (%rax,%rcx,4),%r10
  4019a5:	41 8b 0a             	mov    (%r10),%ecx
  4019a8:	39 ce                	cmp    %ecx,%esi
  4019aa:	0f 84 a7 00 00 00    	je     401a57 <_Unwind_Resume@plt+0xea7>
  4019b0:	48 63 f1             	movslq %ecx,%rsi
  4019b3:	48 8d 3c b0          	lea    (%rax,%rsi,4),%rdi
  4019b7:	8b 37                	mov    (%rdi),%esi
  4019b9:	48 89 3c 24          	mov    %rdi,(%rsp)
  4019bd:	39 f1                	cmp    %esi,%ecx
  4019bf:	0f 84 8f 00 00 00    	je     401a54 <_Unwind_Resume@plt+0xea4>
  4019c5:	48 63 ce             	movslq %esi,%rcx
  4019c8:	48 8d 3c 88          	lea    (%rax,%rcx,4),%rdi
  4019cc:	8b 0f                	mov    (%rdi),%ecx
  4019ce:	48 89 7c 24 08       	mov    %rdi,0x8(%rsp)
  4019d3:	39 ce                	cmp    %ecx,%esi
  4019d5:	74 77                	je     401a4e <_Unwind_Resume@plt+0xe9e>
  4019d7:	48 63 f1             	movslq %ecx,%rsi
  4019da:	48 8d 3c b0          	lea    (%rax,%rsi,4),%rdi
  4019de:	48 89 7c 24 10       	mov    %rdi,0x10(%rsp)
  4019e3:	8b 3f                	mov    (%rdi),%edi
  4019e5:	39 f9                	cmp    %edi,%ecx
  4019e7:	74 5e                	je     401a47 <_Unwind_Resume@plt+0xe97>
  4019e9:	48 63 cf             	movslq %edi,%rcx
  4019ec:	48 8d 04 88          	lea    (%rax,%rcx,4),%rax
  4019f0:	89 f9                	mov    %edi,%ecx
  4019f2:	8b 30                	mov    (%rax),%esi
  4019f4:	48 89 44 24 18       	mov    %rax,0x18(%rsp)
  4019f9:	39 f7                	cmp    %esi,%edi
  4019fb:	74 43                	je     401a40 <_Unwind_Resume@plt+0xe90>
  4019fd:	4c 89 df             	mov    %r11,%rdi
  401a00:	4c 89 54 24 48       	mov    %r10,0x48(%rsp)
  401a05:	4c 89 4c 24 40       	mov    %r9,0x40(%rsp)
  401a0a:	4c 89 44 24 38       	mov    %r8,0x38(%rsp)
  401a0f:	48 89 54 24 30       	mov    %rdx,0x30(%rsp)
  401a14:	4c 89 5c 24 20       	mov    %r11,0x20(%rsp)
  401a19:	e8 b2 05 00 00       	callq  401fd0 <_Unwind_Resume@plt+0x1420>
  401a1e:	89 c1                	mov    %eax,%ecx
  401a20:	48 8b 44 24 18       	mov    0x18(%rsp),%rax
  401a25:	4c 8b 54 24 48       	mov    0x48(%rsp),%r10
  401a2a:	4c 8b 4c 24 40       	mov    0x40(%rsp),%r9
  401a2f:	4c 8b 44 24 38       	mov    0x38(%rsp),%r8
  401a34:	48 8b 54 24 30       	mov    0x30(%rsp),%rdx
  401a39:	4c 8b 5c 24 20       	mov    0x20(%rsp),%r11
  401a3e:	89 08                	mov    %ecx,(%rax)
  401a40:	48 8b 44 24 10       	mov    0x10(%rsp),%rax
  401a45:	89 08                	mov    %ecx,(%rax)
  401a47:	48 8b 44 24 08       	mov    0x8(%rsp),%rax
  401a4c:	89 08                	mov    %ecx,(%rax)
  401a4e:	48 8b 04 24          	mov    (%rsp),%rax
  401a52:	89 08                	mov    %ecx,(%rax)
  401a54:	41 89 0a             	mov    %ecx,(%r10)
  401a57:	41 89 09             	mov    %ecx,(%r9)
  401a5a:	41 89 08             	mov    %ecx,(%r8)
  401a5d:	89 0a                	mov    %ecx,(%rdx)
  401a5f:	41 89 0f             	mov    %ecx,(%r15)
  401a62:	41 89 0e             	mov    %ecx,(%r14)
  401a65:	48 8b 94 24 f0 00 00 	mov    0xf0(%rsp),%rdx
  401a6c:	00 
  401a6d:	48 85 d2             	test   %rdx,%rdx
  401a70:	74 3e                	je     401ab0 <_Unwind_Resume@plt+0xf00>
  401a72:	48 8d 84 24 e8 00 00 	lea    0xe8(%rsp),%rax
  401a79:	00 
  401a7a:	eb 10                	jmp    401a8c <_Unwind_Resume@plt+0xedc>
  401a7c:	0f 1f 40 00          	nopl   0x0(%rax)
  401a80:	48 89 d0             	mov    %rdx,%rax
  401a83:	48 8b 52 10          	mov    0x10(%rdx),%rdx
  401a87:	48 85 d2             	test   %rdx,%rdx
  401a8a:	74 0e                	je     401a9a <_Unwind_Resume@plt+0xeea>
  401a8c:	3b 4a 20             	cmp    0x20(%rdx),%ecx
  401a8f:	7e ef                	jle    401a80 <_Unwind_Resume@plt+0xed0>
  401a91:	48 8b 52 18          	mov    0x18(%rdx),%rdx
  401a95:	48 85 d2             	test   %rdx,%rdx
  401a98:	75 f2                	jne    401a8c <_Unwind_Resume@plt+0xedc>
  401a9a:	48 8d 94 24 e8 00 00 	lea    0xe8(%rsp),%rdx
  401aa1:	00 
  401aa2:	48 39 d0             	cmp    %rdx,%rax
  401aa5:	74 09                	je     401ab0 <_Unwind_Resume@plt+0xf00>
  401aa7:	3b 48 20             	cmp    0x20(%rax),%ecx
  401aaa:	0f 8d 68 fe ff ff    	jge    401918 <_Unwind_Resume@plt+0xd68>
  401ab0:	e8 fb 04 00 00       	callq  401fb0 <_Unwind_Resume@plt+0x1400>
  401ab5:	0f 1f 00             	nopl   (%rax)
  401ab8:	48 83 c5 14          	add    $0x14,%rbp
  401abc:	48 81 fd 90 01 00 00 	cmp    $0x190,%rbp
  401ac3:	0f 85 3f fe ff ff    	jne    401908 <_Unwind_Resume@plt+0xd58>
  401ac9:	4d 89 df             	mov    %r11,%r15
  401acc:	45 31 e4             	xor    %r12d,%r12d
  401acf:	41 ba ff ff ff ff    	mov    $0xffffffff,%r10d
  401ad5:	41 bb 01 00 00 00    	mov    $0x1,%r11d
  401adb:	4d 89 f9             	mov    %r15,%r9
  401ade:	66 90                	xchg   %ax,%ax
  401ae0:	4a 8d 2c a5 00 00 00 	lea    0x0(,%r12,4),%rbp
  401ae7:	00 
  401ae8:	31 db                	xor    %ebx,%ebx
  401aea:	eb 16                	jmp    401b02 <_Unwind_Resume@plt+0xf52>
  401aec:	0f 1f 40 00          	nopl   0x0(%rax)
  401af0:	48 83 c3 01          	add    $0x1,%rbx
  401af4:	48 83 c5 04          	add    $0x4,%rbp
  401af8:	48 83 fb 14          	cmp    $0x14,%rbx
  401afc:	0f 84 76 01 00 00    	je     401c78 <_Unwind_Resume@plt+0x10c8>
  401b02:	4a 8d 04 23          	lea    (%rbx,%r12,1),%rax
  401b06:	42 8d 0c 23          	lea    (%rbx,%r12,1),%ecx
  401b0a:	4c 89 da             	mov    %r11,%rdx
  401b0d:	48 c1 e8 06          	shr    $0x6,%rax
  401b11:	48 d3 e2             	shl    %cl,%rdx
  401b14:	48 85 94 c4 10 01 00 	test   %rdx,0x110(%rsp,%rax,8)
  401b1b:	00 
  401b1c:	74 d2                	je     401af0 <_Unwind_Resume@plt+0xf40>
  401b1e:	49 8b 31             	mov    (%r9),%rsi
  401b21:	4c 8d 2c 2e          	lea    (%rsi,%rbp,1),%r13
  401b25:	41 8b 55 00          	mov    0x0(%r13),%edx
  401b29:	39 d1                	cmp    %edx,%ecx
  401b2b:	0f 84 19 01 00 00    	je     401c4a <_Unwind_Resume@plt+0x109a>
  401b31:	48 63 c2             	movslq %edx,%rax
  401b34:	89 d1                	mov    %edx,%ecx
  401b36:	4c 8d 34 86          	lea    (%rsi,%rax,4),%r14
  401b3a:	41 8b 06             	mov    (%r14),%eax
  401b3d:	39 c2                	cmp    %eax,%edx
  401b3f:	0f 84 01 01 00 00    	je     401c46 <_Unwind_Resume@plt+0x1096>
  401b45:	48 63 d0             	movslq %eax,%rdx
  401b48:	4c 8d 3c 96          	lea    (%rsi,%rdx,4),%r15
  401b4c:	41 8b 0f             	mov    (%r15),%ecx
  401b4f:	39 c8                	cmp    %ecx,%eax
  401b51:	0f 84 ea 00 00 00    	je     401c41 <_Unwind_Resume@plt+0x1091>
  401b57:	48 63 c1             	movslq %ecx,%rax
  401b5a:	48 8d 14 86          	lea    (%rsi,%rax,4),%rdx
  401b5e:	8b 02                	mov    (%rdx),%eax
  401b60:	39 c1                	cmp    %eax,%ecx
  401b62:	0f 84 d6 00 00 00    	je     401c3e <_Unwind_Resume@plt+0x108e>
  401b68:	48 63 c8             	movslq %eax,%rcx
  401b6b:	48 8d 0c 8e          	lea    (%rsi,%rcx,4),%rcx
  401b6f:	8b 39                	mov    (%rcx),%edi
  401b71:	39 f8                	cmp    %edi,%eax
  401b73:	0f 84 c3 00 00 00    	je     401c3c <_Unwind_Resume@plt+0x108c>
  401b79:	48 63 c7             	movslq %edi,%rax
  401b7c:	4c 8d 04 86          	lea    (%rsi,%rax,4),%r8
  401b80:	41 8b 00             	mov    (%r8),%eax
  401b83:	39 c7                	cmp    %eax,%edi
  401b85:	0f 84 af 00 00 00    	je     401c3a <_Unwind_Resume@plt+0x108a>
  401b8b:	48 63 f8             	movslq %eax,%rdi
  401b8e:	48 8d 3c be          	lea    (%rsi,%rdi,4),%rdi
  401b92:	48 89 3c 24          	mov    %rdi,(%rsp)
  401b96:	8b 3f                	mov    (%rdi),%edi
  401b98:	39 f8                	cmp    %edi,%eax
  401b9a:	0f 84 97 00 00 00    	je     401c37 <_Unwind_Resume@plt+0x1087>
  401ba0:	48 63 c7             	movslq %edi,%rax
  401ba3:	48 8d 04 86          	lea    (%rsi,%rax,4),%rax
  401ba7:	48 89 44 24 08       	mov    %rax,0x8(%rsp)
  401bac:	8b 00                	mov    (%rax),%eax
  401bae:	39 c7                	cmp    %eax,%edi
  401bb0:	74 7f                	je     401c31 <_Unwind_Resume@plt+0x1081>
  401bb2:	48 63 f8             	movslq %eax,%rdi
  401bb5:	48 8d 3c be          	lea    (%rsi,%rdi,4),%rdi
  401bb9:	48 89 7c 24 10       	mov    %rdi,0x10(%rsp)
  401bbe:	8b 3f                	mov    (%rdi),%edi
  401bc0:	39 f8                	cmp    %edi,%eax
  401bc2:	74 66                	je     401c2a <_Unwind_Resume@plt+0x107a>
  401bc4:	48 63 c7             	movslq %edi,%rax
  401bc7:	48 8d 04 86          	lea    (%rsi,%rax,4),%rax
  401bcb:	8b 30                	mov    (%rax),%esi
  401bcd:	48 89 44 24 18       	mov    %rax,0x18(%rsp)
  401bd2:	89 f8                	mov    %edi,%eax
  401bd4:	39 f7                	cmp    %esi,%edi
  401bd6:	74 4b                	je     401c23 <_Unwind_Resume@plt+0x1073>
  401bd8:	4c 89 cf             	mov    %r9,%rdi
  401bdb:	44 89 54 24 50       	mov    %r10d,0x50(%rsp)
  401be0:	4c 89 5c 24 48       	mov    %r11,0x48(%rsp)
  401be5:	4c 89 44 24 40       	mov    %r8,0x40(%rsp)
  401bea:	48 89 4c 24 38       	mov    %rcx,0x38(%rsp)
  401bef:	48 89 54 24 30       	mov    %rdx,0x30(%rsp)
  401bf4:	4c 89 4c 24 20       	mov    %r9,0x20(%rsp)
  401bf9:	e8 d2 03 00 00       	callq  401fd0 <_Unwind_Resume@plt+0x1420>
  401bfe:	48 8b 7c 24 18       	mov    0x18(%rsp),%rdi
  401c03:	44 8b 54 24 50       	mov    0x50(%rsp),%r10d
  401c08:	4c 8b 5c 24 48       	mov    0x48(%rsp),%r11
  401c0d:	4c 8b 44 24 40       	mov    0x40(%rsp),%r8
  401c12:	48 8b 4c 24 38       	mov    0x38(%rsp),%rcx
  401c17:	48 8b 54 24 30       	mov    0x30(%rsp),%rdx
  401c1c:	4c 8b 4c 24 20       	mov    0x20(%rsp),%r9
  401c21:	89 07                	mov    %eax,(%rdi)
  401c23:	48 8b 7c 24 10       	mov    0x10(%rsp),%rdi
  401c28:	89 07                	mov    %eax,(%rdi)
  401c2a:	48 8b 7c 24 08       	mov    0x8(%rsp),%rdi
  401c2f:	89 07                	mov    %eax,(%rdi)
  401c31:	48 8b 3c 24          	mov    (%rsp),%rdi
  401c35:	89 07                	mov    %eax,(%rdi)
  401c37:	41 89 00             	mov    %eax,(%r8)
  401c3a:	89 01                	mov    %eax,(%rcx)
  401c3c:	89 02                	mov    %eax,(%rdx)
  401c3e:	41 89 07             	mov    %eax,(%r15)
  401c41:	41 89 06             	mov    %eax,(%r14)
  401c44:	89 c1                	mov    %eax,%ecx
  401c46:	41 89 4d 00          	mov    %ecx,0x0(%r13)
  401c4a:	41 83 fa ff          	cmp    $0xffffffff,%r10d
  401c4e:	74 10                	je     401c60 <_Unwind_Resume@plt+0x10b0>
  401c50:	44 39 d1             	cmp    %r10d,%ecx
  401c53:	0f 84 97 fe ff ff    	je     401af0 <_Unwind_Resume@plt+0xf40>
  401c59:	e8 52 03 00 00       	callq  401fb0 <_Unwind_Resume@plt+0x1400>
  401c5e:	66 90                	xchg   %ax,%ax
  401c60:	48 83 c3 01          	add    $0x1,%rbx
  401c64:	48 83 c5 04          	add    $0x4,%rbp
  401c68:	41 89 ca             	mov    %ecx,%r10d
  401c6b:	48 83 fb 14          	cmp    $0x14,%rbx
  401c6f:	0f 85 8d fe ff ff    	jne    401b02 <_Unwind_Resume@plt+0xf52>
  401c75:	0f 1f 00             	nopl   (%rax)
  401c78:	49 83 c4 14          	add    $0x14,%r12
  401c7c:	49 81 fc 90 01 00 00 	cmp    $0x190,%r12
  401c83:	0f 85 57 fe ff ff    	jne    401ae0 <_Unwind_Resume@plt+0xf30>
  401c89:	41 b9 14 00 00 00    	mov    $0x14,%r9d
  401c8f:	66 45 31 e4          	xor    %r12w,%r12w
  401c93:	be 01 00 00 00       	mov    $0x1,%esi
  401c98:	0f 1f 84 00 00 00 00 	nopl   0x0(%rax,%rax,1)
  401c9f:	00 
  401ca0:	4c 89 e0             	mov    %r12,%rax
  401ca3:	44 89 cb             	mov    %r9d,%ebx
  401ca6:	45 89 e3             	mov    %r12d,%r11d
  401ca9:	48 c1 e8 06          	shr    $0x6,%rax
  401cad:	41 8d 54 24 01       	lea    0x1(%r12),%edx
  401cb2:	4d 8d 6c 24 01       	lea    0x1(%r12),%r13
  401cb7:	4c 8b 94 c4 10 01 00 	mov    0x110(%rsp,%rax,8),%r10
  401cbe:	00 
  401cbf:	4c 89 c8             	mov    %r9,%rax
  401cc2:	49 8d 69 01          	lea    0x1(%r9),%rbp
  401cc6:	48 c1 e8 06          	shr    $0x6,%rax
  401cca:	44 29 e3             	sub    %r12d,%ebx
  401ccd:	48 8b bc c4 10 01 00 	mov    0x110(%rsp,%rax,8),%rdi
  401cd4:	00 
  401cd5:	31 c0                	xor    %eax,%eax
  401cd7:	eb 0a                	jmp    401ce3 <_Unwind_Resume@plt+0x1133>
  401cd9:	0f 1f 80 00 00 00 00 	nopl   0x0(%rax)
  401ce0:	4d 89 c2             	mov    %r8,%r10
  401ce3:	49 8d 4c 05 00       	lea    0x0(%r13,%rax,1),%rcx
  401ce8:	49 89 f7             	mov    %rsi,%r15
  401ceb:	49 89 f6             	mov    %rsi,%r14
  401cee:	48 c1 e9 06          	shr    $0x6,%rcx
  401cf2:	4c 8b 84 cc 10 01 00 	mov    0x110(%rsp,%rcx,8),%r8
  401cf9:	00 
  401cfa:	41 8d 0c 03          	lea    (%r11,%rax,1),%ecx
  401cfe:	49 d3 e7             	shl    %cl,%r15
  401d01:	89 d1                	mov    %edx,%ecx
  401d03:	4d 85 fa             	test   %r15,%r10
  401d06:	49 89 f7             	mov    %rsi,%r15
  401d09:	41 0f 95 c2          	setne  %r10b
  401d0d:	49 d3 e6             	shl    %cl,%r14
  401d10:	4d 85 f0             	test   %r14,%r8
  401d13:	45 0f b6 d2          	movzbl %r10b,%r10d
  401d17:	49 89 f6             	mov    %rsi,%r14
  401d1a:	0f 95 c1             	setne  %cl
  401d1d:	0f b6 c9             	movzbl %cl,%ecx
  401d20:	41 01 ca             	add    %ecx,%r10d
  401d23:	41 8d 0c 01          	lea    (%r9,%rax,1),%ecx
  401d27:	49 d3 e7             	shl    %cl,%r15
  401d2a:	4c 85 ff             	test   %r15,%rdi
  401d2d:	0f 95 c1             	setne  %cl
  401d30:	0f b6 c9             	movzbl %cl,%ecx
  401d33:	41 01 ca             	add    %ecx,%r10d
  401d36:	48 8d 4c 05 00       	lea    0x0(%rbp,%rax,1),%rcx
  401d3b:	48 c1 e9 06          	shr    $0x6,%rcx
  401d3f:	48 8b bc cc 10 01 00 	mov    0x110(%rsp,%rcx,8),%rdi
  401d46:	00 
  401d47:	8d 0c 13             	lea    (%rbx,%rdx,1),%ecx
  401d4a:	49 d3 e6             	shl    %cl,%r14
  401d4d:	4c 85 f7             	test   %r14,%rdi
  401d50:	0f 95 c1             	setne  %cl
  401d53:	0f b6 c9             	movzbl %cl,%ecx
  401d56:	41 01 ca             	add    %ecx,%r10d
  401d59:	41 83 fa 04          	cmp    $0x4,%r10d
  401d5d:	74 77                	je     401dd6 <_Unwind_Resume@plt+0x1226>
  401d5f:	48 83 c0 01          	add    $0x1,%rax
  401d63:	83 c2 01             	add    $0x1,%edx
  401d66:	48 83 f8 13          	cmp    $0x13,%rax
  401d6a:	0f 85 70 ff ff ff    	jne    401ce0 <_Unwind_Resume@plt+0x1130>
  401d70:	49 83 c4 14          	add    $0x14,%r12
  401d74:	49 83 c1 14          	add    $0x14,%r9
  401d78:	49 81 fc 7c 01 00 00 	cmp    $0x17c,%r12
  401d7f:	0f 85 1b ff ff ff    	jne    401ca0 <_Unwind_Resume@plt+0x10f0>
  401d85:	48 8b 54 24 28       	mov    0x28(%rsp),%rdx
  401d8a:	be 97 2c 40 00       	mov    $0x402c97,%esi
  401d8f:	bf 01 00 00 00       	mov    $0x1,%edi
  401d94:	31 c0                	xor    %eax,%eax
  401d96:	e8 25 ed ff ff       	callq  400ac0 <__printf_chk@plt>
  401d9b:	48 8b b4 24 f0 00 00 	mov    0xf0(%rsp),%rsi
  401da2:	00 
  401da3:	48 8d bc 24 e0 00 00 	lea    0xe0(%rsp),%rdi
  401daa:	00 
  401dab:	e8 a0 02 00 00       	callq  402050 <_Unwind_Resume@plt+0x14a0>
  401db0:	48 8b bc 24 c0 00 00 	mov    0xc0(%rsp),%rdi
  401db7:	00 
  401db8:	48 85 ff             	test   %rdi,%rdi
  401dbb:	74 05                	je     401dc2 <_Unwind_Resume@plt+0x1212>
  401dbd:	e8 de ec ff ff       	callq  400aa0 <_ZdlPv@plt>
  401dc2:	48 81 c4 58 03 00 00 	add    $0x358,%rsp
  401dc9:	31 c0                	xor    %eax,%eax
  401dcb:	5b                   	pop    %rbx
  401dcc:	5d                   	pop    %rbp
  401dcd:	41 5c                	pop    %r12
  401dcf:	41 5d                	pop    %r13
  401dd1:	41 5e                	pop    %r14
  401dd3:	41 5f                	pop    %r15
  401dd5:	c3                   	retq   
  401dd6:	e8 d5 01 00 00       	callq  401fb0 <_Unwind_Resume@plt+0x1400>
  401ddb:	48 8b b4 24 f0 00 00 	mov    0xf0(%rsp),%rsi
  401de2:	00 
  401de3:	48 8d bc 24 e0 00 00 	lea    0xe0(%rsp),%rdi
  401dea:	00 
  401deb:	48 89 c3             	mov    %rax,%rbx
  401dee:	e8 5d 02 00 00       	callq  402050 <_Unwind_Resume@plt+0x14a0>
  401df3:	48 8b bc 24 c0 00 00 	mov    0xc0(%rsp),%rdi
  401dfa:	00 
  401dfb:	48 85 ff             	test   %rdi,%rdi
  401dfe:	74 05                	je     401e05 <_Unwind_Resume@plt+0x1255>
  401e00:	e8 9b ec ff ff       	callq  400aa0 <_ZdlPv@plt>
  401e05:	48 89 df             	mov    %rbx,%rdi
  401e08:	e8 a3 ed ff ff       	callq  400bb0 <_Unwind_Resume@plt>
  401e0d:	e8 9e 01 00 00       	callq  401fb0 <_Unwind_Resume@plt+0x1400>
  401e12:	48 89 c3             	mov    %rax,%rbx
  401e15:	eb dc                	jmp    401df3 <_Unwind_Resume@plt+0x1243>
  401e17:	4c 89 ff             	mov    %r15,%rdi
  401e1a:	48 89 c3             	mov    %rax,%rbx
  401e1d:	e8 7e ec ff ff       	callq  400aa0 <_ZdlPv@plt>
  401e22:	eb cf                	jmp    401df3 <_Unwind_Resume@plt+0x1243>
  401e24:	48 8b 16             	mov    (%rsi),%rdx
  401e27:	bf 01 00 00 00       	mov    $0x1,%edi
  401e2c:	be 79 2c 40 00       	mov    $0x402c79,%esi
  401e31:	31 c0                	xor    %eax,%eax
  401e33:	e8 88 ec ff ff       	callq  400ac0 <__printf_chk@plt>
  401e38:	bf 01 00 00 00       	mov    $0x1,%edi
  401e3d:	e8 6e ec ff ff       	callq  400ab0 <exit@plt>
  401e42:	bf 89 2c 40 00       	mov    $0x402c89,%edi
  401e47:	e8 44 ec ff ff       	callq  400a90 <puts@plt>
  401e4c:	bf 01 00 00 00       	mov    $0x1,%edi
  401e51:	e8 5a ec ff ff       	callq  400ab0 <exit@plt>
  401e56:	e8 55 01 00 00       	callq  401fb0 <_Unwind_Resume@plt+0x1400>
  401e5b:	e8 50 01 00 00       	callq  401fb0 <_Unwind_Resume@plt+0x1400>
  401e60:	48 83 ec 18          	sub    $0x18,%rsp
  401e64:	bf f8 40 60 00       	mov    $0x6040f8,%edi
  401e69:	e8 62 ec ff ff       	callq  400ad0 <_ZNSt8ios_base4InitC1Ev@plt>
  401e6e:	ba d0 40 60 00       	mov    $0x6040d0,%edx
  401e73:	be f8 40 60 00       	mov    $0x6040f8,%esi
  401e78:	bf 10 0b 40 00       	mov    $0x400b10,%edi
  401e7d:	e8 7e ec ff ff       	callq  400b00 <__cxa_atexit@plt>
  401e82:	48 8d 54 24 0f       	lea    0xf(%rsp),%rdx
  401e87:	be a8 2c 40 00       	mov    $0x402ca8,%esi
  401e8c:	bf f0 40 60 00       	mov    $0x6040f0,%edi
  401e91:	e8 aa ec ff ff       	callq  400b40 <_ZNSsC1EPKcRKSaIcE@plt>
  401e96:	ba d0 40 60 00       	mov    $0x6040d0,%edx
  401e9b:	be f0 40 60 00       	mov    $0x6040f0,%esi
  401ea0:	bf 20 0b 40 00       	mov    $0x400b20,%edi
  401ea5:	e8 56 ec ff ff       	callq  400b00 <__cxa_atexit@plt>
  401eaa:	48 83 c4 18          	add    $0x18,%rsp
  401eae:	c3                   	retq   
  401eaf:	90                   	nop
  401eb0:	0f ae 5c 24 fc       	stmxcsr -0x4(%rsp)
  401eb5:	81 4c 24 fc 40 80 00 	orl    $0x8040,-0x4(%rsp)
  401ebc:	00 
  401ebd:	0f ae 54 24 fc       	ldmxcsr -0x4(%rsp)
  401ec2:	c3                   	retq   
  401ec3:	31 ed                	xor    %ebp,%ebp
  401ec5:	49 89 d1             	mov    %rdx,%r9
  401ec8:	5e                   	pop    %rsi
  401ec9:	48 89 e2             	mov    %rsp,%rdx
  401ecc:	48 83 e4 f0          	and    $0xfffffffffffffff0,%rsp
  401ed0:	50                   	push   %rax
  401ed1:	54                   	push   %rsp
  401ed2:	49 c7 c0 40 2c 40 00 	mov    $0x402c40,%r8
  401ed9:	48 c7 c1 d0 2b 40 00 	mov    $0x402bd0,%rcx
  401ee0:	48 c7 c7 c0 0b 40 00 	mov    $0x400bc0,%rdi
  401ee7:	e8 f4 eb ff ff       	callq  400ae0 <__libc_start_main@plt>
  401eec:	f4                   	hlt    
  401eed:	0f 1f 00             	nopl   (%rax)
  401ef0:	b8 df 40 60 00       	mov    $0x6040df,%eax
  401ef5:	55                   	push   %rbp
  401ef6:	48 2d d8 40 60 00    	sub    $0x6040d8,%rax
  401efc:	48 83 f8 0e          	cmp    $0xe,%rax
  401f00:	48 89 e5             	mov    %rsp,%rbp
  401f03:	77 02                	ja     401f07 <_Unwind_Resume@plt+0x1357>
  401f05:	5d                   	pop    %rbp
  401f06:	c3                   	retq   
  401f07:	b8 00 00 00 00       	mov    $0x0,%eax
  401f0c:	48 85 c0             	test   %rax,%rax
  401f0f:	74 f4                	je     401f05 <_Unwind_Resume@plt+0x1355>
  401f11:	5d                   	pop    %rbp
  401f12:	bf d8 40 60 00       	mov    $0x6040d8,%edi
  401f17:	ff e0                	jmpq   *%rax
  401f19:	0f 1f 80 00 00 00 00 	nopl   0x0(%rax)
  401f20:	b8 d8 40 60 00       	mov    $0x6040d8,%eax
  401f25:	55                   	push   %rbp
  401f26:	48 2d d8 40 60 00    	sub    $0x6040d8,%rax
  401f2c:	48 c1 f8 03          	sar    $0x3,%rax
  401f30:	48 89 e5             	mov    %rsp,%rbp
  401f33:	48 89 c2             	mov    %rax,%rdx
  401f36:	48 c1 ea 3f          	shr    $0x3f,%rdx
  401f3a:	48 01 d0             	add    %rdx,%rax
  401f3d:	48 d1 f8             	sar    %rax
  401f40:	75 02                	jne    401f44 <_Unwind_Resume@plt+0x1394>
  401f42:	5d                   	pop    %rbp
  401f43:	c3                   	retq   
  401f44:	ba 00 00 00 00       	mov    $0x0,%edx
  401f49:	48 85 d2             	test   %rdx,%rdx
  401f4c:	74 f4                	je     401f42 <_Unwind_Resume@plt+0x1392>
  401f4e:	5d                   	pop    %rbp
  401f4f:	48 89 c6             	mov    %rax,%rsi
  401f52:	bf d8 40 60 00       	mov    $0x6040d8,%edi
  401f57:	ff e2                	jmpq   *%rdx
  401f59:	0f 1f 80 00 00 00 00 	nopl   0x0(%rax)
  401f60:	80 3d 79 21 20 00 00 	cmpb   $0x0,0x202179(%rip)        # 6040e0 <_Unwind_Resume@plt+0x203530>
  401f67:	75 11                	jne    401f7a <_Unwind_Resume@plt+0x13ca>
  401f69:	55                   	push   %rbp
  401f6a:	48 89 e5             	mov    %rsp,%rbp
  401f6d:	e8 7e ff ff ff       	callq  401ef0 <_Unwind_Resume@plt+0x1340>
  401f72:	5d                   	pop    %rbp
  401f73:	c6 05 66 21 20 00 01 	movb   $0x1,0x202166(%rip)        # 6040e0 <_Unwind_Resume@plt+0x203530>
  401f7a:	f3 c3                	repz retq 
  401f7c:	0f 1f 40 00          	nopl   0x0(%rax)
  401f80:	48 83 3d 78 1e 20 00 	cmpq   $0x0,0x201e78(%rip)        # 603e00 <_Unwind_Resume@plt+0x203250>
  401f87:	00 
  401f88:	74 1e                	je     401fa8 <_Unwind_Resume@plt+0x13f8>
  401f8a:	b8 00 00 00 00       	mov    $0x0,%eax
  401f8f:	48 85 c0             	test   %rax,%rax
  401f92:	74 14                	je     401fa8 <_Unwind_Resume@plt+0x13f8>
  401f94:	55                   	push   %rbp
  401f95:	bf 00 3e 60 00       	mov    $0x603e00,%edi
  401f9a:	48 89 e5             	mov    %rsp,%rbp
  401f9d:	ff d0                	callq  *%rax
  401f9f:	5d                   	pop    %rbp
  401fa0:	e9 7b ff ff ff       	jmpq   401f20 <_Unwind_Resume@plt+0x1370>
  401fa5:	0f 1f 00             	nopl   (%rax)
  401fa8:	e9 73 ff ff ff       	jmpq   401f20 <_Unwind_Resume@plt+0x1370>
  401fad:	0f 1f 00             	nopl   (%rax)
  401fb0:	bf 54 2c 40 00       	mov    $0x402c54,%edi
  401fb5:	48 83 ec 08          	sub    $0x8,%rsp
  401fb9:	e8 d2 ea ff ff       	callq  400a90 <puts@plt>
  401fbe:	bf 01 00 00 00       	mov    $0x1,%edi
  401fc3:	e8 e8 ea ff ff       	callq  400ab0 <exit@plt>
  401fc8:	0f 1f 84 00 00 00 00 	nopl   0x0(%rax,%rax,1)
  401fcf:	00 
  401fd0:	41 56                	push   %r14
  401fd2:	48 8b 17             	mov    (%rdi),%rdx
  401fd5:	48 63 c6             	movslq %esi,%rax
  401fd8:	41 55                	push   %r13
  401fda:	41 54                	push   %r12
  401fdc:	55                   	push   %rbp
  401fdd:	53                   	push   %rbx
  401fde:	48 8d 1c 82          	lea    (%rdx,%rax,4),%rbx
  401fe2:	8b 03                	mov    (%rbx),%eax
  401fe4:	39 c6                	cmp    %eax,%esi
  401fe6:	74 51                	je     402039 <_Unwind_Resume@plt+0x1489>
  401fe8:	48 63 c8             	movslq %eax,%rcx
  401feb:	48 8d 2c 8a          	lea    (%rdx,%rcx,4),%rbp
  401fef:	8b 4d 00             	mov    0x0(%rbp),%ecx
  401ff2:	39 c8                	cmp    %ecx,%eax
  401ff4:	74 41                	je     402037 <_Unwind_Resume@plt+0x1487>
  401ff6:	48 63 c1             	movslq %ecx,%rax
  401ff9:	4c 8d 24 82          	lea    (%rdx,%rax,4),%r12
  401ffd:	41 8b 04 24          	mov    (%r12),%eax
  402001:	39 c1                	cmp    %eax,%ecx
  402003:	74 2f                	je     402034 <_Unwind_Resume@plt+0x1484>
  402005:	48 63 c8             	movslq %eax,%rcx
  402008:	4c 8d 2c 8a          	lea    (%rdx,%rcx,4),%r13
  40200c:	41 8b 4d 00          	mov    0x0(%r13),%ecx
  402010:	39 c8                	cmp    %ecx,%eax
  402012:	74 1c                	je     402030 <_Unwind_Resume@plt+0x1480>
  402014:	48 63 c1             	movslq %ecx,%rax
  402017:	4c 8d 34 82          	lea    (%rdx,%rax,4),%r14
  40201b:	89 c8                	mov    %ecx,%eax
  40201d:	41 8b 36             	mov    (%r14),%esi
  402020:	39 f1                	cmp    %esi,%ecx
  402022:	74 08                	je     40202c <_Unwind_Resume@plt+0x147c>
  402024:	e8 a7 ff ff ff       	callq  401fd0 <_Unwind_Resume@plt+0x1420>
  402029:	41 89 06             	mov    %eax,(%r14)
  40202c:	41 89 45 00          	mov    %eax,0x0(%r13)
  402030:	41 89 04 24          	mov    %eax,(%r12)
  402034:	89 45 00             	mov    %eax,0x0(%rbp)
  402037:	89 03                	mov    %eax,(%rbx)
  402039:	5b                   	pop    %rbx
  40203a:	5d                   	pop    %rbp
  40203b:	41 5c                	pop    %r12
  40203d:	41 5d                	pop    %r13
  40203f:	41 5e                	pop    %r14
  402041:	c3                   	retq   
  402042:	66 2e 0f 1f 84 00 00 	nopw   %cs:0x0(%rax,%rax,1)
  402049:	00 00 00 
  40204c:	0f 1f 40 00          	nopl   0x0(%rax)
  402050:	41 57                	push   %r15
  402052:	41 56                	push   %r14
  402054:	41 55                	push   %r13
  402056:	41 54                	push   %r12
  402058:	55                   	push   %rbp
  402059:	53                   	push   %rbx
  40205a:	48 89 fb             	mov    %rdi,%rbx
  40205d:	48 83 ec 38          	sub    $0x38,%rsp
  402061:	48 85 f6             	test   %rsi,%rsi
  402064:	48 89 74 24 28       	mov    %rsi,0x28(%rsp)
  402069:	0f 84 93 01 00 00    	je     402202 <_Unwind_Resume@plt+0x1652>
  40206f:	48 8b 44 24 28       	mov    0x28(%rsp),%rax
  402074:	48 8b 40 18          	mov    0x18(%rax),%rax
  402078:	48 85 c0             	test   %rax,%rax
  40207b:	48 89 44 24 08       	mov    %rax,0x8(%rsp)
  402080:	0f 84 5c 01 00 00    	je     4021e2 <_Unwind_Resume@plt+0x1632>
  402086:	48 8b 40 18          	mov    0x18(%rax),%rax
  40208a:	48 85 c0             	test   %rax,%rax
  40208d:	48 89 44 24 10       	mov    %rax,0x10(%rsp)
  402092:	0f 84 27 01 00 00    	je     4021bf <_Unwind_Resume@plt+0x160f>
  402098:	48 8b 40 18          	mov    0x18(%rax),%rax
  40209c:	48 85 c0             	test   %rax,%rax
  40209f:	48 89 44 24 18       	mov    %rax,0x18(%rsp)
  4020a4:	0f 84 f2 00 00 00    	je     40219c <_Unwind_Resume@plt+0x15ec>
  4020aa:	48 8b 40 18          	mov    0x18(%rax),%rax
  4020ae:	48 85 c0             	test   %rax,%rax
  4020b1:	48 89 44 24 20       	mov    %rax,0x20(%rsp)
  4020b6:	0f 84 bd 00 00 00    	je     402179 <_Unwind_Resume@plt+0x15c9>
  4020bc:	4c 8b 78 18          	mov    0x18(%rax),%r15
  4020c0:	4d 85 ff             	test   %r15,%r15
  4020c3:	0f 84 92 00 00 00    	je     40215b <_Unwind_Resume@plt+0x15ab>
  4020c9:	4d 8b 67 18          	mov    0x18(%r15),%r12
  4020cd:	4d 85 e4             	test   %r12,%r12
  4020d0:	74 6b                	je     40213d <_Unwind_Resume@plt+0x158d>
  4020d2:	49 8b 6c 24 18       	mov    0x18(%r12),%rbp
  4020d7:	48 85 ed             	test   %rbp,%rbp
  4020da:	74 4a                	je     402126 <_Unwind_Resume@plt+0x1576>
  4020dc:	0f 1f 40 00          	nopl   0x0(%rax)
  4020e0:	4c 8b 6d 18          	mov    0x18(%rbp),%r13
  4020e4:	4d 85 ed             	test   %r13,%r13
  4020e7:	75 0a                	jne    4020f3 <_Unwind_Resume@plt+0x1543>
  4020e9:	eb 25                	jmp    402110 <_Unwind_Resume@plt+0x1560>
  4020eb:	0f 1f 44 00 00       	nopl   0x0(%rax,%rax,1)
  4020f0:	4d 89 f5             	mov    %r14,%r13
  4020f3:	49 8b 75 18          	mov    0x18(%r13),%rsi
  4020f7:	48 89 df             	mov    %rbx,%rdi
  4020fa:	e8 51 ff ff ff       	callq  402050 <_Unwind_Resume@plt+0x14a0>
  4020ff:	4d 8b 75 10          	mov    0x10(%r13),%r14
  402103:	4c 89 ef             	mov    %r13,%rdi
  402106:	e8 95 e9 ff ff       	callq  400aa0 <_ZdlPv@plt>
  40210b:	4d 85 f6             	test   %r14,%r14
  40210e:	75 e0                	jne    4020f0 <_Unwind_Resume@plt+0x1540>
  402110:	4c 8b 6d 10          	mov    0x10(%rbp),%r13
  402114:	48 89 ef             	mov    %rbp,%rdi
  402117:	e8 84 e9 ff ff       	callq  400aa0 <_ZdlPv@plt>
  40211c:	4d 85 ed             	test   %r13,%r13
  40211f:	74 05                	je     402126 <_Unwind_Resume@plt+0x1576>
  402121:	4c 89 ed             	mov    %r13,%rbp
  402124:	eb ba                	jmp    4020e0 <_Unwind_Resume@plt+0x1530>
  402126:	49 8b 6c 24 10       	mov    0x10(%r12),%rbp
  40212b:	4c 89 e7             	mov    %r12,%rdi
  40212e:	e8 6d e9 ff ff       	callq  400aa0 <_ZdlPv@plt>
  402133:	48 85 ed             	test   %rbp,%rbp
  402136:	74 05                	je     40213d <_Unwind_Resume@plt+0x158d>
  402138:	49 89 ec             	mov    %rbp,%r12
  40213b:	eb 95                	jmp    4020d2 <_Unwind_Resume@plt+0x1522>
  40213d:	49 8b 6f 10          	mov    0x10(%r15),%rbp
  402141:	4c 89 ff             	mov    %r15,%rdi
  402144:	e8 57 e9 ff ff       	callq  400aa0 <_ZdlPv@plt>
  402149:	48 85 ed             	test   %rbp,%rbp
  40214c:	74 08                	je     402156 <_Unwind_Resume@plt+0x15a6>
  40214e:	49 89 ef             	mov    %rbp,%r15
  402151:	e9 73 ff ff ff       	jmpq   4020c9 <_Unwind_Resume@plt+0x1519>
  402156:	48 8b 44 24 20       	mov    0x20(%rsp),%rax
  40215b:	48 8b 68 10          	mov    0x10(%rax),%rbp
  40215f:	48 89 c7             	mov    %rax,%rdi
  402162:	e8 39 e9 ff ff       	callq  400aa0 <_ZdlPv@plt>
  402167:	48 85 ed             	test   %rbp,%rbp
  40216a:	74 0d                	je     402179 <_Unwind_Resume@plt+0x15c9>
  40216c:	48 89 6c 24 20       	mov    %rbp,0x20(%rsp)
  402171:	48 89 e8             	mov    %rbp,%rax
  402174:	e9 43 ff ff ff       	jmpq   4020bc <_Unwind_Resume@plt+0x150c>
  402179:	48 8b 44 24 18       	mov    0x18(%rsp),%rax
  40217e:	48 8b 68 10          	mov    0x10(%rax),%rbp
  402182:	48 89 c7             	mov    %rax,%rdi
  402185:	e8 16 e9 ff ff       	callq  400aa0 <_ZdlPv@plt>
  40218a:	48 85 ed             	test   %rbp,%rbp
  40218d:	74 0d                	je     40219c <_Unwind_Resume@plt+0x15ec>
  40218f:	48 89 6c 24 18       	mov    %rbp,0x18(%rsp)
  402194:	48 89 e8             	mov    %rbp,%rax
  402197:	e9 0e ff ff ff       	jmpq   4020aa <_Unwind_Resume@plt+0x14fa>
  40219c:	48 8b 44 24 10       	mov    0x10(%rsp),%rax
  4021a1:	48 8b 68 10          	mov    0x10(%rax),%rbp
  4021a5:	48 89 c7             	mov    %rax,%rdi
  4021a8:	e8 f3 e8 ff ff       	callq  400aa0 <_ZdlPv@plt>
  4021ad:	48 85 ed             	test   %rbp,%rbp
  4021b0:	74 0d                	je     4021bf <_Unwind_Resume@plt+0x160f>
  4021b2:	48 89 6c 24 10       	mov    %rbp,0x10(%rsp)
  4021b7:	48 89 e8             	mov    %rbp,%rax
  4021ba:	e9 d9 fe ff ff       	jmpq   402098 <_Unwind_Resume@plt+0x14e8>
  4021bf:	48 8b 44 24 08       	mov    0x8(%rsp),%rax
  4021c4:	48 8b 68 10          	mov    0x10(%rax),%rbp
  4021c8:	48 89 c7             	mov    %rax,%rdi
  4021cb:	e8 d0 e8 ff ff       	callq  400aa0 <_ZdlPv@plt>
  4021d0:	48 85 ed             	test   %rbp,%rbp
  4021d3:	74 0d                	je     4021e2 <_Unwind_Resume@plt+0x1632>
  4021d5:	48 89 6c 24 08       	mov    %rbp,0x8(%rsp)
  4021da:	48 89 e8             	mov    %rbp,%rax
  4021dd:	e9 a4 fe ff ff       	jmpq   402086 <_Unwind_Resume@plt+0x14d6>
  4021e2:	48 8b 44 24 28       	mov    0x28(%rsp),%rax
  4021e7:	48 8b 68 10          	mov    0x10(%rax),%rbp
  4021eb:	48 89 c7             	mov    %rax,%rdi
  4021ee:	e8 ad e8 ff ff       	callq  400aa0 <_ZdlPv@plt>
  4021f3:	48 85 ed             	test   %rbp,%rbp
  4021f6:	74 0a                	je     402202 <_Unwind_Resume@plt+0x1652>
  4021f8:	48 89 6c 24 28       	mov    %rbp,0x28(%rsp)
  4021fd:	e9 6d fe ff ff       	jmpq   40206f <_Unwind_Resume@plt+0x14bf>
  402202:	48 83 c4 38          	add    $0x38,%rsp
  402206:	5b                   	pop    %rbx
  402207:	5d                   	pop    %rbp
  402208:	41 5c                	pop    %r12
  40220a:	41 5d                	pop    %r13
  40220c:	41 5e                	pop    %r14
  40220e:	41 5f                	pop    %r15
  402210:	c3                   	retq   
  402211:	66 2e 0f 1f 84 00 00 	nopw   %cs:0x0(%rax,%rax,1)
  402218:	00 00 00 
  40221b:	0f 1f 44 00 00       	nopl   0x0(%rax,%rax,1)
  402220:	41 57                	push   %r15
  402222:	41 56                	push   %r14
  402224:	49 89 f6             	mov    %rsi,%r14
  402227:	41 55                	push   %r13
  402229:	41 54                	push   %r12
  40222b:	49 89 fc             	mov    %rdi,%r12
  40222e:	55                   	push   %rbp
  40222f:	48 8d 6f 08          	lea    0x8(%rdi),%rbp
  402233:	53                   	push   %rbx
  402234:	48 83 ec 08          	sub    $0x8,%rsp
  402238:	48 8b 5f 10          	mov    0x10(%rdi),%rbx
  40223c:	48 85 db             	test   %rbx,%rbx
  40223f:	74 56                	je     402297 <_Unwind_Resume@plt+0x16e7>
  402241:	44 8b 06             	mov    (%rsi),%r8d
  402244:	eb 1c                	jmp    402262 <_Unwind_Resume@plt+0x16b2>
  402246:	66 2e 0f 1f 84 00 00 	nopw   %cs:0x0(%rax,%rax,1)
  40224d:	00 00 00 
  402250:	48 8b 43 10          	mov    0x10(%rbx),%rax
  402254:	41 b9 01 00 00 00    	mov    $0x1,%r9d
  40225a:	48 85 c0             	test   %rax,%rax
  40225d:	74 17                	je     402276 <_Unwind_Resume@plt+0x16c6>
  40225f:	48 89 c3             	mov    %rax,%rbx
  402262:	8b 53 20             	mov    0x20(%rbx),%edx
  402265:	44 39 c2             	cmp    %r8d,%edx
  402268:	7f e6                	jg     402250 <_Unwind_Resume@plt+0x16a0>
  40226a:	48 8b 43 18          	mov    0x18(%rbx),%rax
  40226e:	45 31 c9             	xor    %r9d,%r9d
  402271:	48 85 c0             	test   %rax,%rax
  402274:	75 e9                	jne    40225f <_Unwind_Resume@plt+0x16af>
  402276:	45 84 c9             	test   %r9b,%r9b
  402279:	49 89 dd             	mov    %rbx,%r13
  40227c:	75 22                	jne    4022a0 <_Unwind_Resume@plt+0x16f0>
  40227e:	44 39 c2             	cmp    %r8d,%edx
  402281:	7c 40                	jl     4022c3 <_Unwind_Resume@plt+0x1713>
  402283:	48 83 c4 08          	add    $0x8,%rsp
  402287:	48 89 d8             	mov    %rbx,%rax
  40228a:	31 d2                	xor    %edx,%edx
  40228c:	5b                   	pop    %rbx
  40228d:	5d                   	pop    %rbp
  40228e:	41 5c                	pop    %r12
  402290:	41 5d                	pop    %r13
  402292:	41 5e                	pop    %r14
  402294:	41 5f                	pop    %r15
  402296:	c3                   	retq   
  402297:	48 89 eb             	mov    %rbp,%rbx
  40229a:	66 0f 1f 44 00 00    	nopw   0x0(%rax,%rax,1)
  4022a0:	4d 8b 6c 24 18       	mov    0x18(%r12),%r13
  4022a5:	49 39 dd             	cmp    %rbx,%r13
  4022a8:	74 26                	je     4022d0 <_Unwind_Resume@plt+0x1720>
  4022aa:	48 89 df             	mov    %rbx,%rdi
  4022ad:	49 89 dd             	mov    %rbx,%r13
  4022b0:	e8 3b e8 ff ff       	callq  400af0 <_ZSt18_Rb_tree_decrementPSt18_Rb_tree_node_base@plt>
  4022b5:	45 8b 06             	mov    (%r14),%r8d
  4022b8:	8b 50 20             	mov    0x20(%rax),%edx
  4022bb:	48 89 c3             	mov    %rax,%rbx
  4022be:	44 39 c2             	cmp    %r8d,%edx
  4022c1:	7d c0                	jge    402283 <_Unwind_Resume@plt+0x16d3>
  4022c3:	4d 85 ed             	test   %r13,%r13
  4022c6:	75 08                	jne    4022d0 <_Unwind_Resume@plt+0x1720>
  4022c8:	31 db                	xor    %ebx,%ebx
  4022ca:	eb b7                	jmp    402283 <_Unwind_Resume@plt+0x16d3>
  4022cc:	0f 1f 40 00          	nopl   0x0(%rax)
  4022d0:	4c 39 ed             	cmp    %r13,%rbp
  4022d3:	74 72                	je     402347 <_Unwind_Resume@plt+0x1797>
  4022d5:	45 31 ff             	xor    %r15d,%r15d
  4022d8:	41 8b 45 20          	mov    0x20(%r13),%eax
  4022dc:	41 39 06             	cmp    %eax,(%r14)
  4022df:	41 0f 9c c7          	setl   %r15b
  4022e3:	bf 28 00 00 00       	mov    $0x28,%edi
  4022e8:	e8 b3 e8 ff ff       	callq  400ba0 <_Znwm@plt>
  4022ed:	48 85 c0             	test   %rax,%rax
  4022f0:	48 89 c3             	mov    %rax,%rbx
  4022f3:	74 24                	je     402319 <_Unwind_Resume@plt+0x1769>
  4022f5:	c7 00 00 00 00 00    	movl   $0x0,(%rax)
  4022fb:	48 c7 40 08 00 00 00 	movq   $0x0,0x8(%rax)
  402302:	00 
  402303:	48 c7 40 10 00 00 00 	movq   $0x0,0x10(%rax)
  40230a:	00 
  40230b:	48 c7 40 18 00 00 00 	movq   $0x0,0x18(%rax)
  402312:	00 
  402313:	41 8b 06             	mov    (%r14),%eax
  402316:	89 43 20             	mov    %eax,0x20(%rbx)
  402319:	4c 89 ea             	mov    %r13,%rdx
  40231c:	48 89 e9             	mov    %rbp,%rcx
  40231f:	48 89 de             	mov    %rbx,%rsi
  402322:	44 89 ff             	mov    %r15d,%edi
  402325:	e8 46 e8 ff ff       	callq  400b70 <_ZSt29_Rb_tree_insert_and_rebalancebPSt18_Rb_tree_node_baseS0_RS_@plt>
  40232a:	49 83 44 24 28 01    	addq   $0x1,0x28(%r12)
  402330:	48 83 c4 08          	add    $0x8,%rsp
  402334:	48 89 d8             	mov    %rbx,%rax
  402337:	5b                   	pop    %rbx
  402338:	5d                   	pop    %rbp
  402339:	41 5c                	pop    %r12
  40233b:	41 5d                	pop    %r13
  40233d:	41 5e                	pop    %r14
  40233f:	ba 01 00 00 00       	mov    $0x1,%edx
  402344:	41 5f                	pop    %r15
  402346:	c3                   	retq   
  402347:	41 bf 01 00 00 00    	mov    $0x1,%r15d
  40234d:	eb 94                	jmp    4022e3 <_Unwind_Resume@plt+0x1733>
  40234f:	90                   	nop
  402350:	41 57                	push   %r15
  402352:	41 56                	push   %r14
  402354:	41 55                	push   %r13
  402356:	41 54                	push   %r12
  402358:	55                   	push   %rbp
  402359:	53                   	push   %rbx
  40235a:	48 89 f3             	mov    %rsi,%rbx
  40235d:	48 83 ec 08          	sub    $0x8,%rsp
  402361:	48 85 f6             	test   %rsi,%rsi
  402364:	74 2f                	je     402395 <_Unwind_Resume@plt+0x17e5>
  402366:	4c 8b 67 08          	mov    0x8(%rdi),%r12
  40236a:	48 8b 47 10          	mov    0x10(%rdi),%rax
  40236e:	48 89 fd             	mov    %rdi,%rbp
  402371:	4c 29 e0             	sub    %r12,%rax
  402374:	48 c1 f8 02          	sar    $0x2,%rax
  402378:	48 39 c6             	cmp    %rax,%rsi
  40237b:	77 2b                	ja     4023a8 <_Unwind_Resume@plt+0x17f8>
  40237d:	48 c1 e3 02          	shl    $0x2,%rbx
  402381:	31 f6                	xor    %esi,%esi
  402383:	4c 89 e7             	mov    %r12,%rdi
  402386:	48 89 da             	mov    %rbx,%rdx
  402389:	4c 01 e3             	add    %r12,%rbx
  40238c:	e8 df e6 ff ff       	callq  400a70 <memset@plt>
  402391:	48 89 5d 08          	mov    %rbx,0x8(%rbp)
  402395:	48 83 c4 08          	add    $0x8,%rsp
  402399:	5b                   	pop    %rbx
  40239a:	5d                   	pop    %rbp
  40239b:	41 5c                	pop    %r12
  40239d:	41 5d                	pop    %r13
  40239f:	41 5e                	pop    %r14
  4023a1:	41 5f                	pop    %r15
  4023a3:	c3                   	retq   
  4023a4:	0f 1f 40 00          	nopl   0x0(%rax)
  4023a8:	4c 8b 3f             	mov    (%rdi),%r15
  4023ab:	48 ba ff ff ff ff ff 	movabs $0x3fffffffffffffff,%rdx
  4023b2:	ff ff 3f 
  4023b5:	48 89 d0             	mov    %rdx,%rax
  4023b8:	4d 29 fc             	sub    %r15,%r12
  4023bb:	49 c1 fc 02          	sar    $0x2,%r12
  4023bf:	4c 29 e0             	sub    %r12,%rax
  4023c2:	48 39 c6             	cmp    %rax,%rsi
  4023c5:	0f 87 ae 00 00 00    	ja     402479 <_Unwind_Resume@plt+0x18c9>
  4023cb:	49 39 f4             	cmp    %rsi,%r12
  4023ce:	48 89 f0             	mov    %rsi,%rax
  4023d1:	49 c7 c6 fc ff ff ff 	mov    $0xfffffffffffffffc,%r14
  4023d8:	49 0f 43 c4          	cmovae %r12,%rax
  4023dc:	4c 01 e0             	add    %r12,%rax
  4023df:	73 7f                	jae    402460 <_Unwind_Resume@plt+0x18b0>
  4023e1:	4c 89 f7             	mov    %r14,%rdi
  4023e4:	e8 b7 e7 ff ff       	callq  400ba0 <_Znwm@plt>
  4023e9:	4c 8b 7d 00          	mov    0x0(%rbp),%r15
  4023ed:	48 8b 55 08          	mov    0x8(%rbp),%rdx
  4023f1:	49 89 c5             	mov    %rax,%r13
  4023f4:	4c 29 fa             	sub    %r15,%rdx
  4023f7:	48 c1 fa 02          	sar    $0x2,%rdx
  4023fb:	49 89 d4             	mov    %rdx,%r12
  4023fe:	49 c1 e4 02          	shl    $0x2,%r12
  402402:	48 85 d2             	test   %rdx,%rdx
  402405:	74 12                	je     402419 <_Unwind_Resume@plt+0x1869>
  402407:	4c 89 fe             	mov    %r15,%rsi
  40240a:	4c 89 e2             	mov    %r12,%rdx
  40240d:	4c 89 ef             	mov    %r13,%rdi
  402410:	e8 3b e7 ff ff       	callq  400b50 <memmove@plt>
  402415:	4c 8b 7d 00          	mov    0x0(%rbp),%r15
  402419:	4d 01 ec             	add    %r13,%r12
  40241c:	48 c1 e3 02          	shl    $0x2,%rbx
  402420:	31 f6                	xor    %esi,%esi
  402422:	48 89 da             	mov    %rbx,%rdx
  402425:	4c 89 e7             	mov    %r12,%rdi
  402428:	4c 01 e3             	add    %r12,%rbx
  40242b:	e8 40 e6 ff ff       	callq  400a70 <memset@plt>
  402430:	4d 85 ff             	test   %r15,%r15
  402433:	74 08                	je     40243d <_Unwind_Resume@plt+0x188d>
  402435:	4c 89 ff             	mov    %r15,%rdi
  402438:	e8 63 e6 ff ff       	callq  400aa0 <_ZdlPv@plt>
  40243d:	4c 89 6d 00          	mov    %r13,0x0(%rbp)
  402441:	4d 01 f5             	add    %r14,%r13
  402444:	48 89 5d 08          	mov    %rbx,0x8(%rbp)
  402448:	4c 89 6d 10          	mov    %r13,0x10(%rbp)
  40244c:	48 83 c4 08          	add    $0x8,%rsp
  402450:	5b                   	pop    %rbx
  402451:	5d                   	pop    %rbp
  402452:	41 5c                	pop    %r12
  402454:	41 5d                	pop    %r13
  402456:	41 5e                	pop    %r14
  402458:	41 5f                	pop    %r15
  40245a:	c3                   	retq   
  40245b:	0f 1f 44 00 00       	nopl   0x0(%rax,%rax,1)
  402460:	48 39 d0             	cmp    %rdx,%rax
  402463:	0f 87 78 ff ff ff    	ja     4023e1 <_Unwind_Resume@plt+0x1831>
  402469:	48 85 c0             	test   %rax,%rax
  40246c:	75 15                	jne    402483 <_Unwind_Resume@plt+0x18d3>
  40246e:	4c 89 e2             	mov    %r12,%rdx
  402471:	45 31 f6             	xor    %r14d,%r14d
  402474:	45 31 ed             	xor    %r13d,%r13d
  402477:	eb 85                	jmp    4023fe <_Unwind_Resume@plt+0x184e>
  402479:	bf 5f 2c 40 00       	mov    $0x402c5f,%edi
  40247e:	e8 dd e5 ff ff       	callq  400a60 <_ZSt20__throw_length_errorPKc@plt>
  402483:	4c 8d 34 85 00 00 00 	lea    0x0(,%rax,4),%r14
  40248a:	00 
  40248b:	e9 51 ff ff ff       	jmpq   4023e1 <_Unwind_Resume@plt+0x1831>
  402490:	41 56                	push   %r14
  402492:	31 c0                	xor    %eax,%eax
  402494:	45 31 c9             	xor    %r9d,%r9d
  402497:	41 55                	push   %r13
  402499:	41 54                	push   %r12
  40249b:	55                   	push   %rbp
  40249c:	48 63 ee             	movslq %esi,%rbp
  40249f:	53                   	push   %rbx
  4024a0:	48 89 fb             	mov    %rdi,%rbx
  4024a3:	48 83 ec 10          	sub    $0x10,%rsp
  4024a7:	48 85 ed             	test   %rbp,%rbp
  4024aa:	48 c7 07 00 00 00 00 	movq   $0x0,(%rdi)
  4024b1:	48 c7 47 08 00 00 00 	movq   $0x0,0x8(%rdi)
  4024b8:	00 
  4024b9:	48 c7 47 10 00 00 00 	movq   $0x0,0x10(%rdi)
  4024c0:	00 
  4024c1:	48 c7 47 18 00 00 00 	movq   $0x0,0x18(%rdi)
  4024c8:	00 
  4024c9:	48 c7 47 20 00 00 00 	movq   $0x0,0x20(%rdi)
  4024d0:	00 
  4024d1:	48 c7 47 28 00 00 00 	movq   $0x0,0x28(%rdi)
  4024d8:	00 
  4024d9:	0f 85 31 01 00 00    	jne    402610 <_Unwind_Resume@plt+0x1a60>
  4024df:	49 39 c1             	cmp    %rax,%r9
  4024e2:	0f 84 fc 00 00 00    	je     4025e4 <_Unwind_Resume@plt+0x1a34>
  4024e8:	48 8d 50 04          	lea    0x4(%rax),%rdx
  4024ec:	48 89 c1             	mov    %rax,%rcx
  4024ef:	4c 89 cf             	mov    %r9,%rdi
  4024f2:	83 e1 0f             	and    $0xf,%ecx
  4024f5:	48 29 d7             	sub    %rdx,%rdi
  4024f8:	48 c1 e9 02          	shr    $0x2,%rcx
  4024fc:	48 c1 ef 02          	shr    $0x2,%rdi
  402500:	48 f7 d9             	neg    %rcx
  402503:	48 83 c7 01          	add    $0x1,%rdi
  402507:	83 e1 03             	and    $0x3,%ecx
  40250a:	48 39 cf             	cmp    %rcx,%rdi
  40250d:	48 89 fe             	mov    %rdi,%rsi
  402510:	48 0f 46 cf          	cmovbe %rdi,%rcx
  402514:	48 83 ff 06          	cmp    $0x6,%rdi
  402518:	0f 87 da 00 00 00    	ja     4025f8 <_Unwind_Resume@plt+0x1a48>
  40251e:	48 83 fe 01          	cmp    $0x1,%rsi
  402522:	c7 00 01 00 00 00    	movl   $0x1,(%rax)
  402528:	76 4f                	jbe    402579 <_Unwind_Resume@plt+0x19c9>
  40252a:	48 83 fe 02          	cmp    $0x2,%rsi
  40252e:	c7 40 04 01 00 00 00 	movl   $0x1,0x4(%rax)
  402535:	48 8d 50 08          	lea    0x8(%rax),%rdx
  402539:	76 3e                	jbe    402579 <_Unwind_Resume@plt+0x19c9>
  40253b:	48 83 fe 03          	cmp    $0x3,%rsi
  40253f:	c7 40 08 01 00 00 00 	movl   $0x1,0x8(%rax)
  402546:	48 8d 50 0c          	lea    0xc(%rax),%rdx
  40254a:	76 2d                	jbe    402579 <_Unwind_Resume@plt+0x19c9>
  40254c:	48 83 fe 04          	cmp    $0x4,%rsi
  402550:	c7 40 0c 01 00 00 00 	movl   $0x1,0xc(%rax)
  402557:	48 8d 50 10          	lea    0x10(%rax),%rdx
  40255b:	76 1c                	jbe    402579 <_Unwind_Resume@plt+0x19c9>
  40255d:	48 83 fe 05          	cmp    $0x5,%rsi
  402561:	c7 40 10 01 00 00 00 	movl   $0x1,0x10(%rax)
  402568:	48 8d 50 14          	lea    0x14(%rax),%rdx
  40256c:	76 0b                	jbe    402579 <_Unwind_Resume@plt+0x19c9>
  40256e:	48 8d 50 18          	lea    0x18(%rax),%rdx
  402572:	c7 40 14 01 00 00 00 	movl   $0x1,0x14(%rax)
  402579:	48 39 f7             	cmp    %rsi,%rdi
  40257c:	74 66                	je     4025e4 <_Unwind_Resume@plt+0x1a34>
  40257e:	48 29 f7             	sub    %rsi,%rdi
  402581:	49 89 f8             	mov    %rdi,%r8
  402584:	49 c1 e8 02          	shr    $0x2,%r8
  402588:	4e 8d 14 85 00 00 00 	lea    0x0(,%r8,4),%r10
  40258f:	00 
  402590:	4d 85 d2             	test   %r10,%r10
  402593:	74 29                	je     4025be <_Unwind_Resume@plt+0x1a0e>
  402595:	66 0f 6f 05 b3 07 00 	movdqa 0x7b3(%rip),%xmm0        # 402d50 <_Unwind_Resume@plt+0x21a0>
  40259c:	00 
  40259d:	48 8d 0c b0          	lea    (%rax,%rsi,4),%rcx
  4025a1:	31 c0                	xor    %eax,%eax
  4025a3:	48 83 c0 01          	add    $0x1,%rax
  4025a7:	48 83 c1 10          	add    $0x10,%rcx
  4025ab:	66 0f 7f 41 f0       	movdqa %xmm0,-0x10(%rcx)
  4025b0:	49 39 c0             	cmp    %rax,%r8
  4025b3:	77 ee                	ja     4025a3 <_Unwind_Resume@plt+0x19f3>
  4025b5:	4c 39 d7             	cmp    %r10,%rdi
  4025b8:	4a 8d 14 92          	lea    (%rdx,%r10,4),%rdx
  4025bc:	74 26                	je     4025e4 <_Unwind_Resume@plt+0x1a34>
  4025be:	48 8d 42 04          	lea    0x4(%rdx),%rax
  4025c2:	c7 02 01 00 00 00    	movl   $0x1,(%rdx)
  4025c8:	49 39 c1             	cmp    %rax,%r9
  4025cb:	74 17                	je     4025e4 <_Unwind_Resume@plt+0x1a34>
  4025cd:	48 8d 42 08          	lea    0x8(%rdx),%rax
  4025d1:	c7 42 04 01 00 00 00 	movl   $0x1,0x4(%rdx)
  4025d8:	49 39 c1             	cmp    %rax,%r9
  4025db:	74 07                	je     4025e4 <_Unwind_Resume@plt+0x1a34>
  4025dd:	c7 42 08 01 00 00 00 	movl   $0x1,0x8(%rdx)
  4025e4:	48 83 c4 10          	add    $0x10,%rsp
  4025e8:	5b                   	pop    %rbx
  4025e9:	5d                   	pop    %rbp
  4025ea:	41 5c                	pop    %r12
  4025ec:	41 5d                	pop    %r13
  4025ee:	41 5e                	pop    %r14
  4025f0:	c3                   	retq   
  4025f1:	0f 1f 80 00 00 00 00 	nopl   0x0(%rax)
  4025f8:	48 85 c9             	test   %rcx,%rcx
  4025fb:	0f 85 71 02 00 00    	jne    402872 <_Unwind_Resume@plt+0x1cc2>
  402601:	31 f6                	xor    %esi,%esi
  402603:	48 89 c2             	mov    %rax,%rdx
  402606:	e9 73 ff ff ff       	jmpq   40257e <_Unwind_Resume@plt+0x19ce>
  40260b:	0f 1f 44 00 00       	nopl   0x0(%rax,%rax,1)
  402610:	48 89 ee             	mov    %rbp,%rsi
  402613:	e8 38 fd ff ff       	callq  402350 <_Unwind_Resume@plt+0x17a0>
  402618:	4c 8b 4b 20          	mov    0x20(%rbx),%r9
  40261c:	48 8b 43 18          	mov    0x18(%rbx),%rax
  402620:	4c 8b 53 08          	mov    0x8(%rbx),%r10
  402624:	48 8b 13             	mov    (%rbx),%rdx
  402627:	4d 89 cb             	mov    %r9,%r11
  40262a:	49 29 c3             	sub    %rax,%r11
  40262d:	49 c1 fb 02          	sar    $0x2,%r11
  402631:	49 39 d2             	cmp    %rdx,%r10
  402634:	0f 84 82 01 00 00    	je     4027bc <_Unwind_Resume@plt+0x1c0c>
  40263a:	48 8d 4a 04          	lea    0x4(%rdx),%rcx
  40263e:	48 89 d7             	mov    %rdx,%rdi
  402641:	4d 89 d0             	mov    %r10,%r8
  402644:	83 e7 0f             	and    $0xf,%edi
  402647:	49 29 c8             	sub    %rcx,%r8
  40264a:	48 c1 ef 02          	shr    $0x2,%rdi
  40264e:	49 c1 e8 02          	shr    $0x2,%r8
  402652:	48 f7 df             	neg    %rdi
  402655:	49 83 c0 01          	add    $0x1,%r8
  402659:	83 e7 03             	and    $0x3,%edi
  40265c:	4c 39 c7             	cmp    %r8,%rdi
  40265f:	4c 89 c6             	mov    %r8,%rsi
  402662:	49 0f 47 f8          	cmova  %r8,%rdi
  402666:	49 83 f8 07          	cmp    $0x7,%r8
  40266a:	0f 87 68 01 00 00    	ja     4027d8 <_Unwind_Resume@plt+0x1c28>
  402670:	48 83 fe 01          	cmp    $0x1,%rsi
  402674:	c7 02 00 00 00 00    	movl   $0x0,(%rdx)
  40267a:	0f 86 90 01 00 00    	jbe    402810 <_Unwind_Resume@plt+0x1c60>
  402680:	48 83 fe 02          	cmp    $0x2,%rsi
  402684:	c7 42 04 01 00 00 00 	movl   $0x1,0x4(%rdx)
  40268b:	48 8d 4a 08          	lea    0x8(%rdx),%rcx
  40268f:	0f 86 cb 01 00 00    	jbe    402860 <_Unwind_Resume@plt+0x1cb0>
  402695:	48 83 fe 03          	cmp    $0x3,%rsi
  402699:	c7 42 08 02 00 00 00 	movl   $0x2,0x8(%rdx)
  4026a0:	48 8d 4a 0c          	lea    0xc(%rdx),%rcx
  4026a4:	0f 86 a6 01 00 00    	jbe    402850 <_Unwind_Resume@plt+0x1ca0>
  4026aa:	48 83 fe 04          	cmp    $0x4,%rsi
  4026ae:	c7 42 0c 03 00 00 00 	movl   $0x3,0xc(%rdx)
  4026b5:	48 8d 4a 10          	lea    0x10(%rdx),%rcx
  4026b9:	0f 86 81 01 00 00    	jbe    402840 <_Unwind_Resume@plt+0x1c90>
  4026bf:	48 83 fe 05          	cmp    $0x5,%rsi
  4026c3:	c7 42 10 04 00 00 00 	movl   $0x4,0x10(%rdx)
  4026ca:	48 8d 4a 14          	lea    0x14(%rdx),%rcx
  4026ce:	0f 86 5c 01 00 00    	jbe    402830 <_Unwind_Resume@plt+0x1c80>
  4026d4:	48 83 fe 06          	cmp    $0x6,%rsi
  4026d8:	c7 42 14 05 00 00 00 	movl   $0x5,0x14(%rdx)
  4026df:	48 8d 4a 18          	lea    0x18(%rdx),%rcx
  4026e3:	0f 86 37 01 00 00    	jbe    402820 <_Unwind_Resume@plt+0x1c70>
  4026e9:	48 8d 4a 1c          	lea    0x1c(%rdx),%rcx
  4026ed:	c7 42 18 06 00 00 00 	movl   $0x6,0x18(%rdx)
  4026f4:	bf 07 00 00 00       	mov    $0x7,%edi
  4026f9:	49 39 f0             	cmp    %rsi,%r8
  4026fc:	0f 84 ba 00 00 00    	je     4027bc <_Unwind_Resume@plt+0x1c0c>
  402702:	49 29 f0             	sub    %rsi,%r8
  402705:	4d 89 c5             	mov    %r8,%r13
  402708:	49 c1 ed 02          	shr    $0x2,%r13
  40270c:	4e 8d 24 ad 00 00 00 	lea    0x0(,%r13,4),%r12
  402713:	00 
  402714:	4d 85 e4             	test   %r12,%r12
  402717:	0f 84 7f 00 00 00    	je     40279c <_Unwind_Resume@plt+0x1bec>
  40271d:	44 8d 77 01          	lea    0x1(%rdi),%r14d
  402721:	66 0f 6f 0d 17 06 00 	movdqa 0x617(%rip),%xmm1        # 402d40 <_Unwind_Resume@plt+0x2190>
  402728:	00 
  402729:	48 8d 34 b2          	lea    (%rdx,%rsi,4),%rsi
  40272d:	31 d2                	xor    %edx,%edx
  40272f:	44 89 74 24 04       	mov    %r14d,0x4(%rsp)
  402734:	44 8d 77 02          	lea    0x2(%rdi),%r14d
  402738:	66 0f 6e 64 24 04    	movd   0x4(%rsp),%xmm4
  40273e:	44 89 74 24 08       	mov    %r14d,0x8(%rsp)
  402743:	44 8d 77 03          	lea    0x3(%rdi),%r14d
  402747:	66 0f 6e 54 24 08    	movd   0x8(%rsp),%xmm2
  40274d:	89 7c 24 08          	mov    %edi,0x8(%rsp)
  402751:	44 89 74 24 0c       	mov    %r14d,0xc(%rsp)
  402756:	66 0f 6e 44 24 08    	movd   0x8(%rsp),%xmm0
  40275c:	66 0f 6e 5c 24 0c    	movd   0xc(%rsp),%xmm3
  402762:	66 0f 62 c4          	punpckldq %xmm4,%xmm0
  402766:	66 0f 62 d3          	punpckldq %xmm3,%xmm2
  40276a:	66 0f 6c c2          	punpcklqdq %xmm2,%xmm0
  40276e:	66 0f 6f d0          	movdqa %xmm0,%xmm2
  402772:	48 83 c2 01          	add    $0x1,%rdx
  402776:	48 83 c6 10          	add    $0x10,%rsi
  40277a:	66 0f 7f 46 f0       	movdqa %xmm0,-0x10(%rsi)
  40277f:	4c 39 ea             	cmp    %r13,%rdx
  402782:	66 0f fe d1          	paddd  %xmm1,%xmm2
  402786:	73 08                	jae    402790 <_Unwind_Resume@plt+0x1be0>
  402788:	66 0f 6f c2          	movdqa %xmm2,%xmm0
  40278c:	eb e0                	jmp    40276e <_Unwind_Resume@plt+0x1bbe>
  40278e:	66 90                	xchg   %ax,%ax
  402790:	44 01 e7             	add    %r12d,%edi
  402793:	4d 39 e0             	cmp    %r12,%r8
  402796:	4a 8d 0c a1          	lea    (%rcx,%r12,4),%rcx
  40279a:	74 20                	je     4027bc <_Unwind_Resume@plt+0x1c0c>
  40279c:	48 8d 71 04          	lea    0x4(%rcx),%rsi
  4027a0:	89 39                	mov    %edi,(%rcx)
  4027a2:	8d 57 01             	lea    0x1(%rdi),%edx
  4027a5:	49 39 f2             	cmp    %rsi,%r10
  4027a8:	74 12                	je     4027bc <_Unwind_Resume@plt+0x1c0c>
  4027aa:	89 51 04             	mov    %edx,0x4(%rcx)
  4027ad:	48 8d 51 08          	lea    0x8(%rcx),%rdx
  4027b1:	83 c7 02             	add    $0x2,%edi
  4027b4:	49 39 d2             	cmp    %rdx,%r10
  4027b7:	74 03                	je     4027bc <_Unwind_Resume@plt+0x1c0c>
  4027b9:	89 79 08             	mov    %edi,0x8(%rcx)
  4027bc:	4c 39 dd             	cmp    %r11,%rbp
  4027bf:	77 2f                	ja     4027f0 <_Unwind_Resume@plt+0x1c40>
  4027c1:	0f 83 18 fd ff ff    	jae    4024df <_Unwind_Resume@plt+0x192f>
  4027c7:	4c 8d 0c a8          	lea    (%rax,%rbp,4),%r9
  4027cb:	4c 89 4b 20          	mov    %r9,0x20(%rbx)
  4027cf:	e9 0b fd ff ff       	jmpq   4024df <_Unwind_Resume@plt+0x192f>
  4027d4:	0f 1f 40 00          	nopl   0x0(%rax)
  4027d8:	48 85 ff             	test   %rdi,%rdi
  4027db:	0f 85 89 00 00 00    	jne    40286a <_Unwind_Resume@plt+0x1cba>
  4027e1:	31 f6                	xor    %esi,%esi
  4027e3:	48 89 d1             	mov    %rdx,%rcx
  4027e6:	31 ff                	xor    %edi,%edi
  4027e8:	e9 15 ff ff ff       	jmpq   402702 <_Unwind_Resume@plt+0x1b52>
  4027ed:	0f 1f 00             	nopl   (%rax)
  4027f0:	48 89 ee             	mov    %rbp,%rsi
  4027f3:	48 8d 7b 18          	lea    0x18(%rbx),%rdi
  4027f7:	4c 29 de             	sub    %r11,%rsi
  4027fa:	e8 51 fb ff ff       	callq  402350 <_Unwind_Resume@plt+0x17a0>
  4027ff:	4c 8b 4b 20          	mov    0x20(%rbx),%r9
  402803:	48 8b 43 18          	mov    0x18(%rbx),%rax
  402807:	e9 d3 fc ff ff       	jmpq   4024df <_Unwind_Resume@plt+0x192f>
  40280c:	0f 1f 40 00          	nopl   0x0(%rax)
  402810:	bf 01 00 00 00       	mov    $0x1,%edi
  402815:	e9 df fe ff ff       	jmpq   4026f9 <_Unwind_Resume@plt+0x1b49>
  40281a:	66 0f 1f 44 00 00    	nopw   0x0(%rax,%rax,1)
  402820:	bf 06 00 00 00       	mov    $0x6,%edi
  402825:	e9 cf fe ff ff       	jmpq   4026f9 <_Unwind_Resume@plt+0x1b49>
  40282a:	66 0f 1f 44 00 00    	nopw   0x0(%rax,%rax,1)
  402830:	bf 05 00 00 00       	mov    $0x5,%edi
  402835:	e9 bf fe ff ff       	jmpq   4026f9 <_Unwind_Resume@plt+0x1b49>
  40283a:	66 0f 1f 44 00 00    	nopw   0x0(%rax,%rax,1)
  402840:	bf 04 00 00 00       	mov    $0x4,%edi
  402845:	e9 af fe ff ff       	jmpq   4026f9 <_Unwind_Resume@plt+0x1b49>
  40284a:	66 0f 1f 44 00 00    	nopw   0x0(%rax,%rax,1)
  402850:	bf 03 00 00 00       	mov    $0x3,%edi
  402855:	e9 9f fe ff ff       	jmpq   4026f9 <_Unwind_Resume@plt+0x1b49>
  40285a:	66 0f 1f 44 00 00    	nopw   0x0(%rax,%rax,1)
  402860:	bf 02 00 00 00       	mov    $0x2,%edi
  402865:	e9 8f fe ff ff       	jmpq   4026f9 <_Unwind_Resume@plt+0x1b49>
  40286a:	48 89 fe             	mov    %rdi,%rsi
  40286d:	e9 fe fd ff ff       	jmpq   402670 <_Unwind_Resume@plt+0x1ac0>
  402872:	48 89 ce             	mov    %rcx,%rsi
  402875:	e9 a4 fc ff ff       	jmpq   40251e <_Unwind_Resume@plt+0x196e>
  40287a:	48 8b 7b 18          	mov    0x18(%rbx),%rdi
  40287e:	48 89 c5             	mov    %rax,%rbp
  402881:	48 85 ff             	test   %rdi,%rdi
  402884:	74 05                	je     40288b <_Unwind_Resume@plt+0x1cdb>
  402886:	e8 15 e2 ff ff       	callq  400aa0 <_ZdlPv@plt>
  40288b:	48 8b 3b             	mov    (%rbx),%rdi
  40288e:	48 85 ff             	test   %rdi,%rdi
  402891:	74 05                	je     402898 <_Unwind_Resume@plt+0x1ce8>
  402893:	e8 08 e2 ff ff       	callq  400aa0 <_ZdlPv@plt>
  402898:	48 89 ef             	mov    %rbp,%rdi
  40289b:	e8 10 e3 ff ff       	callq  400bb0 <_Unwind_Resume@plt>
  4028a0:	41 55                	push   %r13
  4028a2:	41 54                	push   %r12
  4028a4:	41 bc 04 00 00 00    	mov    $0x4,%r12d
  4028aa:	55                   	push   %rbp
  4028ab:	53                   	push   %rbx
  4028ac:	48 89 fb             	mov    %rdi,%rbx
  4028af:	48 83 ec 18          	sub    $0x18,%rsp
  4028b3:	48 8b 57 08          	mov    0x8(%rdi),%rdx
  4028b7:	48 2b 17             	sub    (%rdi),%rdx
  4028ba:	48 c1 fa 02          	sar    $0x2,%rdx
  4028be:	48 85 d2             	test   %rdx,%rdx
  4028c1:	75 7d                	jne    402940 <_Unwind_Resume@plt+0x1d90>
  4028c3:	4c 89 e7             	mov    %r12,%rdi
  4028c6:	48 89 74 24 08       	mov    %rsi,0x8(%rsp)
  4028cb:	e8 d0 e2 ff ff       	callq  400ba0 <_Znwm@plt>
  4028d0:	48 8b 0b             	mov    (%rbx),%rcx
  4028d3:	48 89 c5             	mov    %rax,%rbp
  4028d6:	48 8b 43 08          	mov    0x8(%rbx),%rax
  4028da:	48 8b 74 24 08       	mov    0x8(%rsp),%rsi
  4028df:	49 89 ed             	mov    %rbp,%r13
  4028e2:	48 29 c8             	sub    %rcx,%rax
  4028e5:	48 c1 f8 02          	sar    $0x2,%rax
  4028e9:	8b 36                	mov    (%rsi),%esi
  4028eb:	48 8d 14 85 00 00 00 	lea    0x0(,%rax,4),%rdx
  4028f2:	00 
  4028f3:	49 01 d5             	add    %rdx,%r13
  4028f6:	74 04                	je     4028fc <_Unwind_Resume@plt+0x1d4c>
  4028f8:	41 89 75 00          	mov    %esi,0x0(%r13)
  4028fc:	48 85 c0             	test   %rax,%rax
  4028ff:	48 89 cf             	mov    %rcx,%rdi
  402902:	74 0e                	je     402912 <_Unwind_Resume@plt+0x1d62>
  402904:	48 89 ef             	mov    %rbp,%rdi
  402907:	48 89 ce             	mov    %rcx,%rsi
  40290a:	e8 41 e2 ff ff       	callq  400b50 <memmove@plt>
  40290f:	48 8b 3b             	mov    (%rbx),%rdi
  402912:	49 83 c5 04          	add    $0x4,%r13
  402916:	48 85 ff             	test   %rdi,%rdi
  402919:	74 05                	je     402920 <_Unwind_Resume@plt+0x1d70>
  40291b:	e8 80 e1 ff ff       	callq  400aa0 <_ZdlPv@plt>
  402920:	48 89 2b             	mov    %rbp,(%rbx)
  402923:	4c 01 e5             	add    %r12,%rbp
  402926:	4c 89 6b 08          	mov    %r13,0x8(%rbx)
  40292a:	48 89 6b 10          	mov    %rbp,0x10(%rbx)
  40292e:	48 83 c4 18          	add    $0x18,%rsp
  402932:	5b                   	pop    %rbx
  402933:	5d                   	pop    %rbp
  402934:	41 5c                	pop    %r12
  402936:	41 5d                	pop    %r13
  402938:	c3                   	retq   
  402939:	0f 1f 80 00 00 00 00 	nopl   0x0(%rax)
  402940:	48 8d 04 12          	lea    (%rdx,%rdx,1),%rax
  402944:	48 39 c2             	cmp    %rax,%rdx
  402947:	76 0c                	jbe    402955 <_Unwind_Resume@plt+0x1da5>
  402949:	49 c7 c4 fc ff ff ff 	mov    $0xfffffffffffffffc,%r12
  402950:	e9 6e ff ff ff       	jmpq   4028c3 <_Unwind_Resume@plt+0x1d13>
  402955:	48 b9 ff ff ff ff ff 	movabs $0x3fffffffffffffff,%rcx
  40295c:	ff ff 3f 
  40295f:	48 c1 e2 03          	shl    $0x3,%rdx
  402963:	49 c7 c4 fc ff ff ff 	mov    $0xfffffffffffffffc,%r12
  40296a:	48 39 c8             	cmp    %rcx,%rax
  40296d:	4c 0f 46 e2          	cmovbe %rdx,%r12
  402971:	e9 4d ff ff ff       	jmpq   4028c3 <_Unwind_Resume@plt+0x1d13>
  402976:	66 2e 0f 1f 84 00 00 	nopw   %cs:0x0(%rax,%rax,1)
  40297d:	00 00 00 
  402980:	41 54                	push   %r12
  402982:	55                   	push   %rbp
  402983:	53                   	push   %rbx
  402984:	89 fb                	mov    %edi,%ebx
  402986:	48 83 ec 40          	sub    $0x40,%rsp
  40298a:	81 ff 40 42 0f 00    	cmp    $0xf4240,%edi
  402990:	0f 8f 31 01 00 00    	jg     402ac7 <_Unwind_Resume@plt+0x1f17>
  402996:	83 ff 01             	cmp    $0x1,%edi
  402999:	48 c7 44 24 20 00 00 	movq   $0x0,0x20(%rsp)
  4029a0:	00 00 
  4029a2:	48 c7 44 24 28 00 00 	movq   $0x0,0x28(%rsp)
  4029a9:	00 00 
  4029ab:	48 c7 44 24 30 00 00 	movq   $0x0,0x30(%rsp)
  4029b2:	00 00 
  4029b4:	c7 44 24 10 02 00 00 	movl   $0x2,0x10(%rsp)
  4029bb:	00 
  4029bc:	be 02 00 00 00       	mov    $0x2,%esi
  4029c1:	7e 78                	jle    402a3b <_Unwind_Resume@plt+0x1e8b>
  4029c3:	0f 1f 44 00 00       	nopl   0x0(%rax,%rax,1)
  4029c8:	89 d8                	mov    %ebx,%eax
  4029ca:	89 f1                	mov    %esi,%ecx
  4029cc:	99                   	cltd   
  4029cd:	f7 fe                	idiv   %esi
  4029cf:	85 d2                	test   %edx,%edx
  4029d1:	74 27                	je     4029fa <_Unwind_Resume@plt+0x1e4a>
  4029d3:	eb 5b                	jmp    402a30 <_Unwind_Resume@plt+0x1e80>
  4029d5:	0f 1f 00             	nopl   (%rax)
  4029d8:	48 85 c0             	test   %rax,%rax
  4029db:	74 06                	je     4029e3 <_Unwind_Resume@plt+0x1e33>
  4029dd:	89 08                	mov    %ecx,(%rax)
  4029df:	8b 4c 24 10          	mov    0x10(%rsp),%ecx
  4029e3:	48 83 c0 04          	add    $0x4,%rax
  4029e7:	48 89 44 24 28       	mov    %rax,0x28(%rsp)
  4029ec:	89 d8                	mov    %ebx,%eax
  4029ee:	99                   	cltd   
  4029ef:	f7 f9                	idiv   %ecx
  4029f1:	99                   	cltd   
  4029f2:	89 c3                	mov    %eax,%ebx
  4029f4:	f7 f9                	idiv   %ecx
  4029f6:	85 d2                	test   %edx,%edx
  4029f8:	75 36                	jne    402a30 <_Unwind_Resume@plt+0x1e80>
  4029fa:	48 8b 44 24 28       	mov    0x28(%rsp),%rax
  4029ff:	48 3b 44 24 30       	cmp    0x30(%rsp),%rax
  402a04:	75 d2                	jne    4029d8 <_Unwind_Resume@plt+0x1e28>
  402a06:	48 8d 74 24 10       	lea    0x10(%rsp),%rsi
  402a0b:	48 8d 7c 24 20       	lea    0x20(%rsp),%rdi
  402a10:	e8 8b fe ff ff       	callq  4028a0 <_Unwind_Resume@plt+0x1cf0>
  402a15:	8b 4c 24 10          	mov    0x10(%rsp),%ecx
  402a19:	89 d8                	mov    %ebx,%eax
  402a1b:	99                   	cltd   
  402a1c:	f7 f9                	idiv   %ecx
  402a1e:	99                   	cltd   
  402a1f:	89 c3                	mov    %eax,%ebx
  402a21:	f7 f9                	idiv   %ecx
  402a23:	85 d2                	test   %edx,%edx
  402a25:	74 d3                	je     4029fa <_Unwind_Resume@plt+0x1e4a>
  402a27:	66 0f 1f 84 00 00 00 	nopw   0x0(%rax,%rax,1)
  402a2e:	00 00 
  402a30:	8d 71 01             	lea    0x1(%rcx),%esi
  402a33:	39 de                	cmp    %ebx,%esi
  402a35:	89 74 24 10          	mov    %esi,0x10(%rsp)
  402a39:	7e 8d                	jle    4029c8 <_Unwind_Resume@plt+0x1e18>
  402a3b:	bf 10 00 00 00       	mov    $0x10,%edi
  402a40:	e8 5b e1 ff ff       	callq  400ba0 <_Znwm@plt>
  402a45:	48 89 c3             	mov    %rax,%rbx
  402a48:	48 8b 05 e1 02 00 00 	mov    0x2e1(%rip),%rax        # 402d30 <_Unwind_Resume@plt+0x2180>
  402a4f:	45 31 e4             	xor    %r12d,%r12d
  402a52:	48 89 03             	mov    %rax,(%rbx)
  402a55:	48 8b 05 dc 02 00 00 	mov    0x2dc(%rip),%rax        # 402d38 <_Unwind_Resume@plt+0x2188>
  402a5c:	48 8b 6c 24 20       	mov    0x20(%rsp),%rbp
  402a61:	48 89 43 08          	mov    %rax,0x8(%rbx)
  402a65:	48 8b 54 24 28       	mov    0x28(%rsp),%rdx
  402a6a:	48 29 ea             	sub    %rbp,%rdx
  402a6d:	48 c1 fa 02          	sar    $0x2,%rdx
  402a71:	48 83 fa 04          	cmp    $0x4,%rdx
  402a75:	74 33                	je     402aaa <_Unwind_Resume@plt+0x1efa>
  402a77:	48 85 db             	test   %rbx,%rbx
  402a7a:	48 89 ef             	mov    %rbp,%rdi
  402a7d:	74 0d                	je     402a8c <_Unwind_Resume@plt+0x1edc>
  402a7f:	48 89 df             	mov    %rbx,%rdi
  402a82:	e8 19 e0 ff ff       	callq  400aa0 <_ZdlPv@plt>
  402a87:	48 8b 7c 24 20       	mov    0x20(%rsp),%rdi
  402a8c:	48 85 ff             	test   %rdi,%rdi
  402a8f:	44 89 e0             	mov    %r12d,%eax
  402a92:	74 0d                	je     402aa1 <_Unwind_Resume@plt+0x1ef1>
  402a94:	89 44 24 0c          	mov    %eax,0xc(%rsp)
  402a98:	e8 03 e0 ff ff       	callq  400aa0 <_ZdlPv@plt>
  402a9d:	8b 44 24 0c          	mov    0xc(%rsp),%eax
  402aa1:	48 83 c4 40          	add    $0x40,%rsp
  402aa5:	5b                   	pop    %rbx
  402aa6:	5d                   	pop    %rbp
  402aa7:	41 5c                	pop    %r12
  402aa9:	c3                   	retq   
  402aaa:	48 89 ef             	mov    %rbp,%rdi
  402aad:	b2 10                	mov    $0x10,%dl
  402aaf:	48 89 de             	mov    %rbx,%rsi
  402ab2:	e8 c9 e0 ff ff       	callq  400b80 <memcmp@plt>
  402ab7:	85 c0                	test   %eax,%eax
  402ab9:	48 89 ef             	mov    %rbp,%rdi
  402abc:	41 0f 94 c4          	sete   %r12b
  402ac0:	48 85 db             	test   %rbx,%rbx
  402ac3:	75 ba                	jne    402a7f <_Unwind_Resume@plt+0x1ecf>
  402ac5:	eb c5                	jmp    402a8c <_Unwind_Resume@plt+0x1edc>
  402ac7:	48 83 c4 40          	add    $0x40,%rsp
  402acb:	31 c0                	xor    %eax,%eax
  402acd:	5b                   	pop    %rbx
  402ace:	5d                   	pop    %rbp
  402acf:	41 5c                	pop    %r12
  402ad1:	c3                   	retq   
  402ad2:	48 8b 7c 24 20       	mov    0x20(%rsp),%rdi
  402ad7:	48 89 c3             	mov    %rax,%rbx
  402ada:	48 85 ff             	test   %rdi,%rdi
  402add:	74 05                	je     402ae4 <_Unwind_Resume@plt+0x1f34>
  402adf:	e8 bc df ff ff       	callq  400aa0 <_ZdlPv@plt>
  402ae4:	48 89 df             	mov    %rbx,%rdi
  402ae7:	e8 c4 e0 ff ff       	callq  400bb0 <_Unwind_Resume@plt>
  402aec:	0f 1f 40 00          	nopl   0x0(%rax)
  402af0:	41 55                	push   %r13
  402af2:	41 54                	push   %r12
  402af4:	41 bc 04 00 00 00    	mov    $0x4,%r12d
  402afa:	55                   	push   %rbp
  402afb:	53                   	push   %rbx
  402afc:	48 89 fb             	mov    %rdi,%rbx
  402aff:	48 83 ec 18          	sub    $0x18,%rsp
  402b03:	48 8b 57 08          	mov    0x8(%rdi),%rdx
  402b07:	48 2b 17             	sub    (%rdi),%rdx
  402b0a:	48 c1 fa 02          	sar    $0x2,%rdx
  402b0e:	48 85 d2             	test   %rdx,%rdx
  402b11:	75 7d                	jne    402b90 <_Unwind_Resume@plt+0x1fe0>
  402b13:	4c 89 e7             	mov    %r12,%rdi
  402b16:	48 89 74 24 08       	mov    %rsi,0x8(%rsp)
  402b1b:	e8 80 e0 ff ff       	callq  400ba0 <_Znwm@plt>
  402b20:	48 8b 0b             	mov    (%rbx),%rcx
  402b23:	48 89 c5             	mov    %rax,%rbp
  402b26:	48 8b 43 08          	mov    0x8(%rbx),%rax
  402b2a:	48 8b 74 24 08       	mov    0x8(%rsp),%rsi
  402b2f:	49 89 ed             	mov    %rbp,%r13
  402b32:	48 29 c8             	sub    %rcx,%rax
  402b35:	48 c1 f8 02          	sar    $0x2,%rax
  402b39:	8b 36                	mov    (%rsi),%esi
  402b3b:	48 8d 14 85 00 00 00 	lea    0x0(,%rax,4),%rdx
  402b42:	00 
  402b43:	49 01 d5             	add    %rdx,%r13
  402b46:	74 04                	je     402b4c <_Unwind_Resume@plt+0x1f9c>
  402b48:	41 89 75 00          	mov    %esi,0x0(%r13)
  402b4c:	48 85 c0             	test   %rax,%rax
  402b4f:	48 89 cf             	mov    %rcx,%rdi
  402b52:	74 0e                	je     402b62 <_Unwind_Resume@plt+0x1fb2>
  402b54:	48 89 ef             	mov    %rbp,%rdi
  402b57:	48 89 ce             	mov    %rcx,%rsi
  402b5a:	e8 f1 df ff ff       	callq  400b50 <memmove@plt>
  402b5f:	48 8b 3b             	mov    (%rbx),%rdi
  402b62:	49 83 c5 04          	add    $0x4,%r13
  402b66:	48 85 ff             	test   %rdi,%rdi
  402b69:	74 05                	je     402b70 <_Unwind_Resume@plt+0x1fc0>
  402b6b:	e8 30 df ff ff       	callq  400aa0 <_ZdlPv@plt>
  402b70:	48 89 2b             	mov    %rbp,(%rbx)
  402b73:	4c 01 e5             	add    %r12,%rbp
  402b76:	4c 89 6b 08          	mov    %r13,0x8(%rbx)
  402b7a:	48 89 6b 10          	mov    %rbp,0x10(%rbx)
  402b7e:	48 83 c4 18          	add    $0x18,%rsp
  402b82:	5b                   	pop    %rbx
  402b83:	5d                   	pop    %rbp
  402b84:	41 5c                	pop    %r12
  402b86:	41 5d                	pop    %r13
  402b88:	c3                   	retq   
  402b89:	0f 1f 80 00 00 00 00 	nopl   0x0(%rax)
  402b90:	48 8d 04 12          	lea    (%rdx,%rdx,1),%rax
  402b94:	48 39 c2             	cmp    %rax,%rdx
  402b97:	76 0c                	jbe    402ba5 <_Unwind_Resume@plt+0x1ff5>
  402b99:	49 c7 c4 fc ff ff ff 	mov    $0xfffffffffffffffc,%r12
  402ba0:	e9 6e ff ff ff       	jmpq   402b13 <_Unwind_Resume@plt+0x1f63>
  402ba5:	48 b9 ff ff ff ff ff 	movabs $0x3fffffffffffffff,%rcx
  402bac:	ff ff 3f 
  402baf:	48 c1 e2 03          	shl    $0x3,%rdx
  402bb3:	49 c7 c4 fc ff ff ff 	mov    $0xfffffffffffffffc,%r12
  402bba:	48 39 c8             	cmp    %rcx,%rax
  402bbd:	4c 0f 46 e2          	cmovbe %rdx,%r12
  402bc1:	e9 4d ff ff ff       	jmpq   402b13 <_Unwind_Resume@plt+0x1f63>
  402bc6:	66 2e 0f 1f 84 00 00 	nopw   %cs:0x0(%rax,%rax,1)
  402bcd:	00 00 00 
  402bd0:	41 57                	push   %r15
  402bd2:	41 89 ff             	mov    %edi,%r15d
  402bd5:	41 56                	push   %r14
  402bd7:	49 89 f6             	mov    %rsi,%r14
  402bda:	41 55                	push   %r13
  402bdc:	49 89 d5             	mov    %rdx,%r13
  402bdf:	41 54                	push   %r12
  402be1:	4c 8d 25 f8 11 20 00 	lea    0x2011f8(%rip),%r12        # 603de0 <_Unwind_Resume@plt+0x203230>
  402be8:	55                   	push   %rbp
  402be9:	48 8d 2d 08 12 20 00 	lea    0x201208(%rip),%rbp        # 603df8 <_Unwind_Resume@plt+0x203248>
  402bf0:	53                   	push   %rbx
  402bf1:	4c 29 e5             	sub    %r12,%rbp
  402bf4:	31 db                	xor    %ebx,%ebx
  402bf6:	48 c1 fd 03          	sar    $0x3,%rbp
  402bfa:	48 83 ec 08          	sub    $0x8,%rsp
  402bfe:	e8 2d de ff ff       	callq  400a30 <_ZSt20__throw_length_errorPKc@plt-0x30>
  402c03:	48 85 ed             	test   %rbp,%rbp
  402c06:	74 1e                	je     402c26 <_Unwind_Resume@plt+0x2076>
  402c08:	0f 1f 84 00 00 00 00 	nopl   0x0(%rax,%rax,1)
  402c0f:	00 
  402c10:	4c 89 ea             	mov    %r13,%rdx
  402c13:	4c 89 f6             	mov    %r14,%rsi
  402c16:	44 89 ff             	mov    %r15d,%edi
  402c19:	41 ff 14 dc          	callq  *(%r12,%rbx,8)
  402c1d:	48 83 c3 01          	add    $0x1,%rbx
  402c21:	48 39 eb             	cmp    %rbp,%rbx
  402c24:	75 ea                	jne    402c10 <_Unwind_Resume@plt+0x2060>
  402c26:	48 83 c4 08          	add    $0x8,%rsp
  402c2a:	5b                   	pop    %rbx
  402c2b:	5d                   	pop    %rbp
  402c2c:	41 5c                	pop    %r12
  402c2e:	41 5d                	pop    %r13
  402c30:	41 5e                	pop    %r14
  402c32:	41 5f                	pop    %r15
  402c34:	c3                   	retq   
  402c35:	66 66 2e 0f 1f 84 00 	data32 nopw %cs:0x0(%rax,%rax,1)
  402c3c:	00 00 00 00 
  402c40:	f3 c3                	repz retq 

Disassembly of section .fini:

0000000000402c44 <.fini>:
  402c44:	48 83 ec 08          	sub    $0x8,%rsp
  402c48:	48 83 c4 08          	add    $0x8,%rsp
  402c4c:	c3                   	retq   
