
xorflag-7e27cbc8c7cfd12785d18e67a2a34b01:     file format elf32-i386


Disassembly of section .init:

08048350 <_init>:
 8048350:	53                   	push   ebx
 8048351:	83 ec 08             	sub    esp,0x8
 8048354:	e8 e7 00 00 00       	call   8048440 <__x86.get_pc_thunk.bx>
 8048359:	81 c3 a7 1c 00 00    	add    ebx,0x1ca7
 804835f:	8b 83 fc ff ff ff    	mov    eax,DWORD PTR [ebx-0x4]
 8048365:	85 c0                	test   eax,eax
 8048367:	74 05                	je     804836e <_init+0x1e>
 8048369:	e8 32 00 00 00       	call   80483a0 <__gmon_start__@plt>
 804836e:	83 c4 08             	add    esp,0x8
 8048371:	5b                   	pop    ebx
 8048372:	c3                   	ret    

Disassembly of section .plt:

08048380 <read@plt-0x10>:
 8048380:	ff 35 04 a0 04 08    	push   DWORD PTR ds:0x804a004
 8048386:	ff 25 08 a0 04 08    	jmp    DWORD PTR ds:0x804a008
 804838c:	00 00                	add    BYTE PTR [eax],al
	...

08048390 <read@plt>:
 8048390:	ff 25 0c a0 04 08    	jmp    DWORD PTR ds:0x804a00c
 8048396:	68 00 00 00 00       	push   0x0
 804839b:	e9 e0 ff ff ff       	jmp    8048380 <_init+0x30>

080483a0 <__gmon_start__@plt>:
 80483a0:	ff 25 10 a0 04 08    	jmp    DWORD PTR ds:0x804a010
 80483a6:	68 08 00 00 00       	push   0x8
 80483ab:	e9 d0 ff ff ff       	jmp    8048380 <_init+0x30>

080483b0 <exit@plt>:
 80483b0:	ff 25 14 a0 04 08    	jmp    DWORD PTR ds:0x804a014
 80483b6:	68 10 00 00 00       	push   0x10
 80483bb:	e9 c0 ff ff ff       	jmp    8048380 <_init+0x30>

080483c0 <open@plt>:
 80483c0:	ff 25 18 a0 04 08    	jmp    DWORD PTR ds:0x804a018
 80483c6:	68 18 00 00 00       	push   0x18
 80483cb:	e9 b0 ff ff ff       	jmp    8048380 <_init+0x30>

080483d0 <__libc_start_main@plt>:
 80483d0:	ff 25 1c a0 04 08    	jmp    DWORD PTR ds:0x804a01c
 80483d6:	68 20 00 00 00       	push   0x20
 80483db:	e9 a0 ff ff ff       	jmp    8048380 <_init+0x30>

080483e0 <write@plt>:
 80483e0:	ff 25 20 a0 04 08    	jmp    DWORD PTR ds:0x804a020
 80483e6:	68 28 00 00 00       	push   0x28
 80483eb:	e9 90 ff ff ff       	jmp    8048380 <_init+0x30>

080483f0 <atoi@plt>:
 80483f0:	ff 25 24 a0 04 08    	jmp    DWORD PTR ds:0x804a024
 80483f6:	68 30 00 00 00       	push   0x30
 80483fb:	e9 80 ff ff ff       	jmp    8048380 <_init+0x30>

08048400 <close@plt>:
 8048400:	ff 25 28 a0 04 08    	jmp    DWORD PTR ds:0x804a028
 8048406:	68 38 00 00 00       	push   0x38
 804840b:	e9 70 ff ff ff       	jmp    8048380 <_init+0x30>

Disassembly of section .text:

08048410 <_start>:
 8048410:	31 ed                	xor    ebp,ebp
 8048412:	5e                   	pop    esi
 8048413:	89 e1                	mov    ecx,esp
 8048415:	83 e4 f0             	and    esp,0xfffffff0
 8048418:	50                   	push   eax
 8048419:	54                   	push   esp
 804841a:	52                   	push   edx
 804841b:	68 f0 86 04 08       	push   0x80486f0
 8048420:	68 80 86 04 08       	push   0x8048680
 8048425:	51                   	push   ecx
 8048426:	56                   	push   esi
 8048427:	68 5c 85 04 08       	push   0x804855c
 804842c:	e8 9f ff ff ff       	call   80483d0 <__libc_start_main@plt>
 8048431:	f4                   	hlt    
 8048432:	66 90                	xchg   ax,ax
 8048434:	66 90                	xchg   ax,ax
 8048436:	66 90                	xchg   ax,ax
 8048438:	66 90                	xchg   ax,ax
 804843a:	66 90                	xchg   ax,ax
 804843c:	66 90                	xchg   ax,ax
 804843e:	66 90                	xchg   ax,ax

08048440 <__x86.get_pc_thunk.bx>:
 8048440:	8b 1c 24             	mov    ebx,DWORD PTR [esp]
 8048443:	c3                   	ret    
 8048444:	66 90                	xchg   ax,ax
 8048446:	66 90                	xchg   ax,ax
 8048448:	66 90                	xchg   ax,ax
 804844a:	66 90                	xchg   ax,ax
 804844c:	66 90                	xchg   ax,ax
 804844e:	66 90                	xchg   ax,ax

08048450 <deregister_tm_clones>:
 8048450:	b8 37 a0 04 08       	mov    eax,0x804a037
 8048455:	2d 34 a0 04 08       	sub    eax,0x804a034
 804845a:	83 f8 06             	cmp    eax,0x6
 804845d:	77 01                	ja     8048460 <deregister_tm_clones+0x10>
 804845f:	c3                   	ret    
 8048460:	b8 00 00 00 00       	mov    eax,0x0
 8048465:	85 c0                	test   eax,eax
 8048467:	74 f6                	je     804845f <deregister_tm_clones+0xf>
 8048469:	55                   	push   ebp
 804846a:	89 e5                	mov    ebp,esp
 804846c:	83 ec 18             	sub    esp,0x18
 804846f:	c7 04 24 34 a0 04 08 	mov    DWORD PTR [esp],0x804a034
 8048476:	ff d0                	call   eax
 8048478:	c9                   	leave  
 8048479:	c3                   	ret    
 804847a:	8d b6 00 00 00 00    	lea    esi,[esi+0x0]

08048480 <register_tm_clones>:
 8048480:	b8 34 a0 04 08       	mov    eax,0x804a034
 8048485:	2d 34 a0 04 08       	sub    eax,0x804a034
 804848a:	c1 f8 02             	sar    eax,0x2
 804848d:	89 c2                	mov    edx,eax
 804848f:	c1 ea 1f             	shr    edx,0x1f
 8048492:	01 d0                	add    eax,edx
 8048494:	d1 f8                	sar    eax,1
 8048496:	75 01                	jne    8048499 <register_tm_clones+0x19>
 8048498:	c3                   	ret    
 8048499:	ba 00 00 00 00       	mov    edx,0x0
 804849e:	85 d2                	test   edx,edx
 80484a0:	74 f6                	je     8048498 <register_tm_clones+0x18>
 80484a2:	55                   	push   ebp
 80484a3:	89 e5                	mov    ebp,esp
 80484a5:	83 ec 18             	sub    esp,0x18
 80484a8:	89 44 24 04          	mov    DWORD PTR [esp+0x4],eax
 80484ac:	c7 04 24 34 a0 04 08 	mov    DWORD PTR [esp],0x804a034
 80484b3:	ff d2                	call   edx
 80484b5:	c9                   	leave  
 80484b6:	c3                   	ret    
 80484b7:	89 f6                	mov    esi,esi
 80484b9:	8d bc 27 00 00 00 00 	lea    edi,[edi+eiz*1+0x0]

080484c0 <__do_global_dtors_aux>:
 80484c0:	80 3d 34 a0 04 08 00 	cmp    BYTE PTR ds:0x804a034,0x0
 80484c7:	75 13                	jne    80484dc <__do_global_dtors_aux+0x1c>
 80484c9:	55                   	push   ebp
 80484ca:	89 e5                	mov    ebp,esp
 80484cc:	83 ec 08             	sub    esp,0x8
 80484cf:	e8 7c ff ff ff       	call   8048450 <deregister_tm_clones>
 80484d4:	c6 05 34 a0 04 08 01 	mov    BYTE PTR ds:0x804a034,0x1
 80484db:	c9                   	leave  
 80484dc:	f3 c3                	repz ret 
 80484de:	66 90                	xchg   ax,ax

080484e0 <frame_dummy>:
 80484e0:	a1 10 9f 04 08       	mov    eax,ds:0x8049f10
 80484e5:	85 c0                	test   eax,eax
 80484e7:	74 1f                	je     8048508 <frame_dummy+0x28>
 80484e9:	b8 00 00 00 00       	mov    eax,0x0
 80484ee:	85 c0                	test   eax,eax
 80484f0:	74 16                	je     8048508 <frame_dummy+0x28>
 80484f2:	55                   	push   ebp
 80484f3:	89 e5                	mov    ebp,esp
 80484f5:	83 ec 18             	sub    esp,0x18
 80484f8:	c7 04 24 10 9f 04 08 	mov    DWORD PTR [esp],0x8049f10
 80484ff:	ff d0                	call   eax
 8048501:	c9                   	leave  
 8048502:	e9 79 ff ff ff       	jmp    8048480 <register_tm_clones>
 8048507:	90                   	nop
 8048508:	e9 73 ff ff ff       	jmp    8048480 <register_tm_clones>

0804850d <read_80_bytes>:
 804850d:	55                   	push   ebp
 804850e:	89 e5                	mov    ebp,esp
 8048510:	83 ec 28             	sub    esp,0x28
 8048513:	c7 45 f4 00 00 00 00 	mov    DWORD PTR [ebp-0xc],0x0
 804851a:	eb 35                	jmp    8048551 <read_80_bytes+0x44>
 804851c:	8b 55 f4             	mov    edx,DWORD PTR [ebp-0xc]
 804851f:	8b 45 08             	mov    eax,DWORD PTR [ebp+0x8]
 8048522:	01 d0                	add    eax,edx
 8048524:	c7 44 24 08 01 00 00 	mov    DWORD PTR [esp+0x8],0x1
 804852b:	00 
 804852c:	89 44 24 04          	mov    DWORD PTR [esp+0x4],eax
 8048530:	c7 04 24 00 00 00 00 	mov    DWORD PTR [esp],0x0
 8048537:	e8 54 fe ff ff       	call   8048390 <read@plt>
 804853c:	8b 55 f4             	mov    edx,DWORD PTR [ebp-0xc]
 804853f:	8b 45 08             	mov    eax,DWORD PTR [ebp+0x8]
 8048542:	01 d0                	add    eax,edx
 8048544:	0f b6 00             	movzx  eax,BYTE PTR [eax]
 8048547:	3c 0a                	cmp    al,0xa
 8048549:	75 02                	jne    804854d <read_80_bytes+0x40>
 804854b:	eb 0d                	jmp    804855a <read_80_bytes+0x4d>
 804854d:	83 45 f4 01          	add    DWORD PTR [ebp-0xc],0x1
 8048551:	81 7d f4 1f 03 00 00 	cmp    DWORD PTR [ebp-0xc],0x31f
 8048558:	7e c2                	jle    804851c <read_80_bytes+0xf>
 804855a:	c9                   	leave  
 804855b:	c3                   	ret    

0804855c <main>:
 804855c:	55                   	push   ebp
 804855d:	89 e5                	mov    ebp,esp
 804855f:	83 e4 f0             	and    esp,0xfffffff0
 8048562:	83 ec 70             	sub    esp,0x70
 8048565:	8d 44 24 14          	lea    eax,[esp+0x14]
 8048569:	89 04 24             	mov    DWORD PTR [esp],eax
 804856c:	e8 9c ff ff ff       	call   804850d <read_80_bytes>
 8048571:	8d 44 24 14          	lea    eax,[esp+0x14]
 8048575:	89 04 24             	mov    DWORD PTR [esp],eax
 8048578:	e8 73 fe ff ff       	call   80483f0 <atoi@plt>
 804857d:	89 44 24 68          	mov    DWORD PTR [esp+0x68],eax
 8048581:	8b 44 24 68          	mov    eax,DWORD PTR [esp+0x68]
 8048585:	83 f8 28             	cmp    eax,0x28
 8048588:	76 0c                	jbe    8048596 <main+0x3a>
 804858a:	c7 04 24 00 00 00 00 	mov    DWORD PTR [esp],0x0
 8048591:	e8 1a fe ff ff       	call   80483b0 <exit@plt>
 8048596:	c7 44 24 04 00 00 00 	mov    DWORD PTR [esp+0x4],0x0
 804859d:	00 
 804859e:	c7 04 24 10 87 04 08 	mov    DWORD PTR [esp],0x8048710
 80485a5:	e8 16 fe ff ff       	call   80483c0 <open@plt>
 80485aa:	89 44 24 64          	mov    DWORD PTR [esp+0x64],eax
 80485ae:	8b 44 24 68          	mov    eax,DWORD PTR [esp+0x68]
 80485b2:	89 44 24 08          	mov    DWORD PTR [esp+0x8],eax
 80485b6:	8d 44 24 14          	lea    eax,[esp+0x14]
 80485ba:	89 44 24 04          	mov    DWORD PTR [esp+0x4],eax
 80485be:	8b 44 24 64          	mov    eax,DWORD PTR [esp+0x64]
 80485c2:	89 04 24             	mov    DWORD PTR [esp],eax
 80485c5:	e8 c6 fd ff ff       	call   8048390 <read@plt>
 80485ca:	8b 44 24 64          	mov    eax,DWORD PTR [esp+0x64]
 80485ce:	89 04 24             	mov    DWORD PTR [esp],eax
 80485d1:	e8 2a fe ff ff       	call   8048400 <close@plt>
 80485d6:	c7 44 24 04 00 00 00 	mov    DWORD PTR [esp+0x4],0x0
 80485dd:	00 
 80485de:	c7 04 24 22 87 04 08 	mov    DWORD PTR [esp],0x8048722
 80485e5:	e8 d6 fd ff ff       	call   80483c0 <open@plt>
 80485ea:	89 44 24 64          	mov    DWORD PTR [esp+0x64],eax
 80485ee:	8b 44 24 68          	mov    eax,DWORD PTR [esp+0x68]
 80485f2:	8b 54 24 68          	mov    edx,DWORD PTR [esp+0x68]
 80485f6:	8d 4c 24 14          	lea    ecx,[esp+0x14]
 80485fa:	01 ca                	add    edx,ecx
 80485fc:	89 44 24 08          	mov    DWORD PTR [esp+0x8],eax
 8048600:	89 54 24 04          	mov    DWORD PTR [esp+0x4],edx
 8048604:	8b 44 24 64          	mov    eax,DWORD PTR [esp+0x64]
 8048608:	89 04 24             	mov    DWORD PTR [esp],eax
 804860b:	e8 80 fd ff ff       	call   8048390 <read@plt>
 8048610:	8b 44 24 64          	mov    eax,DWORD PTR [esp+0x64]
 8048614:	89 04 24             	mov    DWORD PTR [esp],eax
 8048617:	e8 e4 fd ff ff       	call   8048400 <close@plt>
 804861c:	c7 44 24 6c 00 00 00 	mov    DWORD PTR [esp+0x6c],0x0
 8048623:	00 
 8048624:	eb 2f                	jmp    8048655 <main+0xf9>
 8048626:	8d 54 24 14          	lea    edx,[esp+0x14]
 804862a:	8b 44 24 6c          	mov    eax,DWORD PTR [esp+0x6c]
 804862e:	01 d0                	add    eax,edx
 8048630:	0f b6 10             	movzx  edx,BYTE PTR [eax]
 8048633:	8b 44 24 68          	mov    eax,DWORD PTR [esp+0x68]
 8048637:	8b 4c 24 6c          	mov    ecx,DWORD PTR [esp+0x6c]
 804863b:	01 c8                	add    eax,ecx
 804863d:	0f b6 44 04 14       	movzx  eax,BYTE PTR [esp+eax*1+0x14]
 8048642:	31 d0                	xor    eax,edx
 8048644:	8d 4c 24 14          	lea    ecx,[esp+0x14]
 8048648:	8b 54 24 6c          	mov    edx,DWORD PTR [esp+0x6c]
 804864c:	01 ca                	add    edx,ecx
 804864e:	88 02                	mov    BYTE PTR [edx],al
 8048650:	83 44 24 6c 01       	add    DWORD PTR [esp+0x6c],0x1
 8048655:	8b 44 24 6c          	mov    eax,DWORD PTR [esp+0x6c]
 8048659:	3b 44 24 68          	cmp    eax,DWORD PTR [esp+0x68]
 804865d:	7c c7                	jl     8048626 <main+0xca>
 804865f:	8b 44 24 68          	mov    eax,DWORD PTR [esp+0x68]
 8048663:	89 44 24 08          	mov    DWORD PTR [esp+0x8],eax
 8048667:	8d 44 24 14          	lea    eax,[esp+0x14]
 804866b:	89 44 24 04          	mov    DWORD PTR [esp+0x4],eax
 804866f:	c7 04 24 01 00 00 00 	mov    DWORD PTR [esp],0x1
 8048676:	e8 65 fd ff ff       	call   80483e0 <write@plt>
 804867b:	c9                   	leave  
 804867c:	c3                   	ret    
 804867d:	66 90                	xchg   ax,ax
 804867f:	90                   	nop

08048680 <__libc_csu_init>:
 8048680:	55                   	push   ebp
 8048681:	57                   	push   edi
 8048682:	31 ff                	xor    edi,edi
 8048684:	56                   	push   esi
 8048685:	53                   	push   ebx
 8048686:	e8 b5 fd ff ff       	call   8048440 <__x86.get_pc_thunk.bx>
 804868b:	81 c3 75 19 00 00    	add    ebx,0x1975
 8048691:	83 ec 1c             	sub    esp,0x1c
 8048694:	8b 6c 24 30          	mov    ebp,DWORD PTR [esp+0x30]
 8048698:	8d b3 0c ff ff ff    	lea    esi,[ebx-0xf4]
 804869e:	e8 ad fc ff ff       	call   8048350 <_init>
 80486a3:	8d 83 08 ff ff ff    	lea    eax,[ebx-0xf8]
 80486a9:	29 c6                	sub    esi,eax
 80486ab:	c1 fe 02             	sar    esi,0x2
 80486ae:	85 f6                	test   esi,esi
 80486b0:	74 27                	je     80486d9 <__libc_csu_init+0x59>
 80486b2:	8d b6 00 00 00 00    	lea    esi,[esi+0x0]
 80486b8:	8b 44 24 38          	mov    eax,DWORD PTR [esp+0x38]
 80486bc:	89 2c 24             	mov    DWORD PTR [esp],ebp
 80486bf:	89 44 24 08          	mov    DWORD PTR [esp+0x8],eax
 80486c3:	8b 44 24 34          	mov    eax,DWORD PTR [esp+0x34]
 80486c7:	89 44 24 04          	mov    DWORD PTR [esp+0x4],eax
 80486cb:	ff 94 bb 08 ff ff ff 	call   DWORD PTR [ebx+edi*4-0xf8]
 80486d2:	83 c7 01             	add    edi,0x1
 80486d5:	39 f7                	cmp    edi,esi
 80486d7:	75 df                	jne    80486b8 <__libc_csu_init+0x38>
 80486d9:	83 c4 1c             	add    esp,0x1c
 80486dc:	5b                   	pop    ebx
 80486dd:	5e                   	pop    esi
 80486de:	5f                   	pop    edi
 80486df:	5d                   	pop    ebp
 80486e0:	c3                   	ret    
 80486e1:	eb 0d                	jmp    80486f0 <__libc_csu_fini>
 80486e3:	90                   	nop
 80486e4:	90                   	nop
 80486e5:	90                   	nop
 80486e6:	90                   	nop
 80486e7:	90                   	nop
 80486e8:	90                   	nop
 80486e9:	90                   	nop
 80486ea:	90                   	nop
 80486eb:	90                   	nop
 80486ec:	90                   	nop
 80486ed:	90                   	nop
 80486ee:	90                   	nop
 80486ef:	90                   	nop

080486f0 <__libc_csu_fini>:
 80486f0:	f3 c3                	repz ret 

Disassembly of section .fini:

080486f4 <_fini>:
 80486f4:	53                   	push   ebx
 80486f5:	83 ec 08             	sub    esp,0x8
 80486f8:	e8 43 fd ff ff       	call   8048440 <__x86.get_pc_thunk.bx>
 80486fd:	81 c3 03 19 00 00    	add    ebx,0x1903
 8048703:	83 c4 08             	add    esp,0x8
 8048706:	5b                   	pop    ebx
 8048707:	c3                   	ret    
