
mul-38bdb7f1f93b97b9e21768b1532c9388:     file format elf32-i386


Disassembly of section .init:

0804837c <_init>:
 804837c:	53                   	push   ebx
 804837d:	83 ec 08             	sub    esp,0x8
 8048380:	e8 cb 00 00 00       	call   8048450 <__x86.get_pc_thunk.bx>
 8048385:	81 c3 7b 1c 00 00    	add    ebx,0x1c7b
 804838b:	8b 83 fc ff ff ff    	mov    eax,DWORD PTR [ebx-0x4]
 8048391:	85 c0                	test   eax,eax
 8048393:	74 05                	je     804839a <_init+0x1e>
 8048395:	e8 36 00 00 00       	call   80483d0 <__gmon_start__@plt>
 804839a:	83 c4 08             	add    esp,0x8
 804839d:	5b                   	pop    ebx
 804839e:	c3                   	ret    

Disassembly of section .plt:

080483a0 <printf@plt-0x10>:
 80483a0:	ff 35 04 a0 04 08    	push   DWORD PTR ds:0x804a004
 80483a6:	ff 25 08 a0 04 08    	jmp    DWORD PTR ds:0x804a008
 80483ac:	00 00                	add    BYTE PTR [eax],al
	...

080483b0 <printf@plt>:
 80483b0:	ff 25 0c a0 04 08    	jmp    DWORD PTR ds:0x804a00c
 80483b6:	68 00 00 00 00       	push   0x0
 80483bb:	e9 e0 ff ff ff       	jmp    80483a0 <_init+0x24>

080483c0 <puts@plt>:
 80483c0:	ff 25 10 a0 04 08    	jmp    DWORD PTR ds:0x804a010
 80483c6:	68 08 00 00 00       	push   0x8
 80483cb:	e9 d0 ff ff ff       	jmp    80483a0 <_init+0x24>

080483d0 <__gmon_start__@plt>:
 80483d0:	ff 25 14 a0 04 08    	jmp    DWORD PTR ds:0x804a014
 80483d6:	68 10 00 00 00       	push   0x10
 80483db:	e9 c0 ff ff ff       	jmp    80483a0 <_init+0x24>

080483e0 <exit@plt>:
 80483e0:	ff 25 18 a0 04 08    	jmp    DWORD PTR ds:0x804a018
 80483e6:	68 18 00 00 00       	push   0x18
 80483eb:	e9 b0 ff ff ff       	jmp    80483a0 <_init+0x24>

080483f0 <__libc_start_main@plt>:
 80483f0:	ff 25 1c a0 04 08    	jmp    DWORD PTR ds:0x804a01c
 80483f6:	68 20 00 00 00       	push   0x20
 80483fb:	e9 a0 ff ff ff       	jmp    80483a0 <_init+0x24>

08048400 <setvbuf@plt>:
 8048400:	ff 25 20 a0 04 08    	jmp    DWORD PTR ds:0x804a020
 8048406:	68 28 00 00 00       	push   0x28
 804840b:	e9 90 ff ff ff       	jmp    80483a0 <_init+0x24>

08048410 <__isoc99_scanf@plt>:
 8048410:	ff 25 24 a0 04 08    	jmp    DWORD PTR ds:0x804a024
 8048416:	68 30 00 00 00       	push   0x30
 804841b:	e9 80 ff ff ff       	jmp    80483a0 <_init+0x24>

Disassembly of section .text:

08048420 <_start>:
 8048420:	31 ed                	xor    ebp,ebp
 8048422:	5e                   	pop    esi
 8048423:	89 e1                	mov    ecx,esp
 8048425:	83 e4 f0             	and    esp,0xfffffff0
 8048428:	50                   	push   eax
 8048429:	54                   	push   esp
 804842a:	52                   	push   edx
 804842b:	68 30 88 04 08       	push   0x8048830
 8048430:	68 c0 87 04 08       	push   0x80487c0
 8048435:	51                   	push   ecx
 8048436:	56                   	push   esi
 8048437:	68 1d 85 04 08       	push   0x804851d
 804843c:	e8 af ff ff ff       	call   80483f0 <__libc_start_main@plt>
 8048441:	f4                   	hlt    
 8048442:	66 90                	xchg   ax,ax
 8048444:	66 90                	xchg   ax,ax
 8048446:	66 90                	xchg   ax,ax
 8048448:	66 90                	xchg   ax,ax
 804844a:	66 90                	xchg   ax,ax
 804844c:	66 90                	xchg   ax,ax
 804844e:	66 90                	xchg   ax,ax

08048450 <__x86.get_pc_thunk.bx>:
 8048450:	8b 1c 24             	mov    ebx,DWORD PTR [esp]
 8048453:	c3                   	ret    
 8048454:	66 90                	xchg   ax,ax
 8048456:	66 90                	xchg   ax,ax
 8048458:	66 90                	xchg   ax,ax
 804845a:	66 90                	xchg   ax,ax
 804845c:	66 90                	xchg   ax,ax
 804845e:	66 90                	xchg   ax,ax

08048460 <deregister_tm_clones>:
 8048460:	b8 33 a0 04 08       	mov    eax,0x804a033
 8048465:	2d 30 a0 04 08       	sub    eax,0x804a030
 804846a:	83 f8 06             	cmp    eax,0x6
 804846d:	77 01                	ja     8048470 <deregister_tm_clones+0x10>
 804846f:	c3                   	ret    
 8048470:	b8 00 00 00 00       	mov    eax,0x0
 8048475:	85 c0                	test   eax,eax
 8048477:	74 f6                	je     804846f <deregister_tm_clones+0xf>
 8048479:	55                   	push   ebp
 804847a:	89 e5                	mov    ebp,esp
 804847c:	83 ec 18             	sub    esp,0x18
 804847f:	c7 04 24 30 a0 04 08 	mov    DWORD PTR [esp],0x804a030
 8048486:	ff d0                	call   eax
 8048488:	c9                   	leave  
 8048489:	c3                   	ret    
 804848a:	8d b6 00 00 00 00    	lea    esi,[esi+0x0]

08048490 <register_tm_clones>:
 8048490:	b8 30 a0 04 08       	mov    eax,0x804a030
 8048495:	2d 30 a0 04 08       	sub    eax,0x804a030
 804849a:	c1 f8 02             	sar    eax,0x2
 804849d:	89 c2                	mov    edx,eax
 804849f:	c1 ea 1f             	shr    edx,0x1f
 80484a2:	01 d0                	add    eax,edx
 80484a4:	d1 f8                	sar    eax,1
 80484a6:	75 01                	jne    80484a9 <register_tm_clones+0x19>
 80484a8:	c3                   	ret    
 80484a9:	ba 00 00 00 00       	mov    edx,0x0
 80484ae:	85 d2                	test   edx,edx
 80484b0:	74 f6                	je     80484a8 <register_tm_clones+0x18>
 80484b2:	55                   	push   ebp
 80484b3:	89 e5                	mov    ebp,esp
 80484b5:	83 ec 18             	sub    esp,0x18
 80484b8:	89 44 24 04          	mov    DWORD PTR [esp+0x4],eax
 80484bc:	c7 04 24 30 a0 04 08 	mov    DWORD PTR [esp],0x804a030
 80484c3:	ff d2                	call   edx
 80484c5:	c9                   	leave  
 80484c6:	c3                   	ret    
 80484c7:	89 f6                	mov    esi,esi
 80484c9:	8d bc 27 00 00 00 00 	lea    edi,[edi+eiz*1+0x0]

080484d0 <__do_global_dtors_aux>:
 80484d0:	80 3d 44 a0 04 08 00 	cmp    BYTE PTR ds:0x804a044,0x0
 80484d7:	75 13                	jne    80484ec <__do_global_dtors_aux+0x1c>
 80484d9:	55                   	push   ebp
 80484da:	89 e5                	mov    ebp,esp
 80484dc:	83 ec 08             	sub    esp,0x8
 80484df:	e8 7c ff ff ff       	call   8048460 <deregister_tm_clones>
 80484e4:	c6 05 44 a0 04 08 01 	mov    BYTE PTR ds:0x804a044,0x1
 80484eb:	c9                   	leave  
 80484ec:	f3 c3                	repz ret 
 80484ee:	66 90                	xchg   ax,ax

080484f0 <frame_dummy>:
 80484f0:	a1 10 9f 04 08       	mov    eax,ds:0x8049f10
 80484f5:	85 c0                	test   eax,eax
 80484f7:	74 1f                	je     8048518 <frame_dummy+0x28>
 80484f9:	b8 00 00 00 00       	mov    eax,0x0
 80484fe:	85 c0                	test   eax,eax
 8048500:	74 16                	je     8048518 <frame_dummy+0x28>
 8048502:	55                   	push   ebp
 8048503:	89 e5                	mov    ebp,esp
 8048505:	83 ec 18             	sub    esp,0x18
 8048508:	c7 04 24 10 9f 04 08 	mov    DWORD PTR [esp],0x8049f10
 804850f:	ff d0                	call   eax
 8048511:	c9                   	leave  
 8048512:	e9 79 ff ff ff       	jmp    8048490 <register_tm_clones>
 8048517:	90                   	nop
 8048518:	e9 73 ff ff ff       	jmp    8048490 <register_tm_clones>

0804851d <main>:
 804851d:	55                   	push   ebp
 804851e:	89 e5                	mov    ebp,esp
 8048520:	83 e4 f0             	and    esp,0xfffffff0
 8048523:	81 ec 40 03 00 00    	sub    esp,0x340
 8048529:	a1 40 a0 04 08       	mov    eax,ds:0x804a040
 804852e:	c7 44 24 0c 00 00 00 	mov    DWORD PTR [esp+0xc],0x0
 8048535:	00 
 8048536:	c7 44 24 08 02 00 00 	mov    DWORD PTR [esp+0x8],0x2
 804853d:	00 
 804853e:	c7 44 24 04 00 00 00 	mov    DWORD PTR [esp+0x4],0x0
 8048545:	00 
 8048546:	89 04 24             	mov    DWORD PTR [esp],eax
 8048549:	e8 b2 fe ff ff       	call   8048400 <setvbuf@plt>
 804854e:	c7 04 24 50 88 04 08 	mov    DWORD PTR [esp],0x8048850
 8048555:	e8 56 fe ff ff       	call   80483b0 <printf@plt>
 804855a:	8d 44 24 14          	lea    eax,[esp+0x14]
 804855e:	89 44 24 04          	mov    DWORD PTR [esp+0x4],eax
 8048562:	c7 04 24 60 88 04 08 	mov    DWORD PTR [esp],0x8048860
 8048569:	e8 a2 fe ff ff       	call   8048410 <__isoc99_scanf@plt>
 804856e:	c7 04 24 63 88 04 08 	mov    DWORD PTR [esp],0x8048863
 8048575:	e8 36 fe ff ff       	call   80483b0 <printf@plt>
 804857a:	8d 44 24 10          	lea    eax,[esp+0x10]
 804857e:	89 44 24 04          	mov    DWORD PTR [esp+0x4],eax
 8048582:	c7 04 24 60 88 04 08 	mov    DWORD PTR [esp],0x8048860
 8048589:	e8 82 fe ff ff       	call   8048410 <__isoc99_scanf@plt>
 804858e:	8b 54 24 14          	mov    edx,DWORD PTR [esp+0x14]
 8048592:	8b 44 24 10          	mov    eax,DWORD PTR [esp+0x10]
 8048596:	0f af c2             	imul   eax,edx
 8048599:	3d c8 00 00 00       	cmp    eax,0xc8
 804859e:	76 18                	jbe    80485b8 <main+0x9b>
 80485a0:	c7 04 24 76 88 04 08 	mov    DWORD PTR [esp],0x8048876
 80485a7:	e8 14 fe ff ff       	call   80483c0 <puts@plt>
 80485ac:	c7 04 24 00 00 00 00 	mov    DWORD PTR [esp],0x0
 80485b3:	e8 28 fe ff ff       	call   80483e0 <exit@plt>
 80485b8:	c7 04 24 86 88 04 08 	mov    DWORD PTR [esp],0x8048886
 80485bf:	e8 ec fd ff ff       	call   80483b0 <printf@plt>
 80485c4:	c7 84 24 3c 03 00 00 	mov    DWORD PTR [esp+0x33c],0x0
 80485cb:	00 00 00 00 
 80485cf:	eb 46                	jmp    8048617 <main+0xfa>
 80485d1:	8b 84 24 3c 03 00 00 	mov    eax,DWORD PTR [esp+0x33c]
 80485d8:	c1 e0 02             	shl    eax,0x2
 80485db:	05 80 a3 04 08       	add    eax,0x804a380
 80485e0:	89 44 24 04          	mov    DWORD PTR [esp+0x4],eax
 80485e4:	c7 04 24 60 88 04 08 	mov    DWORD PTR [esp],0x8048860
 80485eb:	e8 20 fe ff ff       	call   8048410 <__isoc99_scanf@plt>
 80485f0:	8b 84 24 3c 03 00 00 	mov    eax,DWORD PTR [esp+0x33c]
 80485f7:	8b 04 85 80 a3 04 08 	mov    eax,DWORD PTR [eax*4+0x804a380]
 80485fe:	85 c0                	test   eax,eax
 8048600:	75 0d                	jne    804860f <main+0xf2>
 8048602:	8b 84 24 3c 03 00 00 	mov    eax,DWORD PTR [esp+0x33c]
 8048609:	89 44 24 14          	mov    DWORD PTR [esp+0x14],eax
 804860d:	eb 15                	jmp    8048624 <main+0x107>
 804860f:	83 84 24 3c 03 00 00 	add    DWORD PTR [esp+0x33c],0x1
 8048616:	01 
 8048617:	8b 44 24 14          	mov    eax,DWORD PTR [esp+0x14]
 804861b:	39 84 24 3c 03 00 00 	cmp    DWORD PTR [esp+0x33c],eax
 8048622:	72 ad                	jb     80485d1 <main+0xb4>
 8048624:	c7 04 24 8c 88 04 08 	mov    DWORD PTR [esp],0x804888c
 804862b:	e8 80 fd ff ff       	call   80483b0 <printf@plt>
 8048630:	c7 84 24 3c 03 00 00 	mov    DWORD PTR [esp+0x33c],0x0
 8048637:	00 00 00 00 
 804863b:	eb 46                	jmp    8048683 <main+0x166>
 804863d:	8b 84 24 3c 03 00 00 	mov    eax,DWORD PTR [esp+0x33c]
 8048644:	c1 e0 02             	shl    eax,0x2
 8048647:	05 60 a0 04 08       	add    eax,0x804a060
 804864c:	89 44 24 04          	mov    DWORD PTR [esp+0x4],eax
 8048650:	c7 04 24 60 88 04 08 	mov    DWORD PTR [esp],0x8048860
 8048657:	e8 b4 fd ff ff       	call   8048410 <__isoc99_scanf@plt>
 804865c:	8b 84 24 3c 03 00 00 	mov    eax,DWORD PTR [esp+0x33c]
 8048663:	8b 04 85 60 a0 04 08 	mov    eax,DWORD PTR [eax*4+0x804a060]
 804866a:	85 c0                	test   eax,eax
 804866c:	75 0d                	jne    804867b <main+0x15e>
 804866e:	8b 84 24 3c 03 00 00 	mov    eax,DWORD PTR [esp+0x33c]
 8048675:	89 44 24 10          	mov    DWORD PTR [esp+0x10],eax
 8048679:	eb 15                	jmp    8048690 <main+0x173>
 804867b:	83 84 24 3c 03 00 00 	add    DWORD PTR [esp+0x33c],0x1
 8048682:	01 
 8048683:	8b 44 24 10          	mov    eax,DWORD PTR [esp+0x10]
 8048687:	39 84 24 3c 03 00 00 	cmp    DWORD PTR [esp+0x33c],eax
 804868e:	72 ad                	jb     804863d <main+0x120>
 8048690:	c7 84 24 3c 03 00 00 	mov    DWORD PTR [esp+0x33c],0x0
 8048697:	00 00 00 00 
 804869b:	eb 64                	jmp    8048701 <main+0x1e4>
 804869d:	c7 84 24 38 03 00 00 	mov    DWORD PTR [esp+0x338],0x0
 80486a4:	00 00 00 00 
 80486a8:	eb 42                	jmp    80486ec <main+0x1cf>
 80486aa:	8b 44 24 10          	mov    eax,DWORD PTR [esp+0x10]
 80486ae:	0f af 84 24 3c 03 00 	imul   eax,DWORD PTR [esp+0x33c]
 80486b5:	00 
 80486b6:	89 c2                	mov    edx,eax
 80486b8:	8b 84 24 38 03 00 00 	mov    eax,DWORD PTR [esp+0x338]
 80486bf:	01 c2                	add    edx,eax
 80486c1:	8b 84 24 3c 03 00 00 	mov    eax,DWORD PTR [esp+0x33c]
 80486c8:	8b 0c 85 80 a3 04 08 	mov    ecx,DWORD PTR [eax*4+0x804a380]
 80486cf:	8b 84 24 38 03 00 00 	mov    eax,DWORD PTR [esp+0x338]
 80486d6:	8b 04 85 60 a0 04 08 	mov    eax,DWORD PTR [eax*4+0x804a060]
 80486dd:	0f af c1             	imul   eax,ecx
 80486e0:	89 44 94 18          	mov    DWORD PTR [esp+edx*4+0x18],eax
 80486e4:	83 84 24 38 03 00 00 	add    DWORD PTR [esp+0x338],0x1
 80486eb:	01 
 80486ec:	8b 44 24 10          	mov    eax,DWORD PTR [esp+0x10]
 80486f0:	39 84 24 38 03 00 00 	cmp    DWORD PTR [esp+0x338],eax
 80486f7:	72 b1                	jb     80486aa <main+0x18d>
 80486f9:	83 84 24 3c 03 00 00 	add    DWORD PTR [esp+0x33c],0x1
 8048700:	01 
 8048701:	8b 44 24 14          	mov    eax,DWORD PTR [esp+0x14]
 8048705:	39 84 24 3c 03 00 00 	cmp    DWORD PTR [esp+0x33c],eax
 804870c:	72 8f                	jb     804869d <main+0x180>
 804870e:	c7 84 24 3c 03 00 00 	mov    DWORD PTR [esp+0x33c],0x0
 8048715:	00 00 00 00 
 8048719:	e9 86 00 00 00       	jmp    80487a4 <main+0x287>
 804871e:	c7 84 24 38 03 00 00 	mov    DWORD PTR [esp+0x338],0x0
 8048725:	00 00 00 00 
 8048729:	eb 58                	jmp    8048783 <main+0x266>
 804872b:	8b 84 24 38 03 00 00 	mov    eax,DWORD PTR [esp+0x338]
 8048732:	8b 94 24 3c 03 00 00 	mov    edx,DWORD PTR [esp+0x33c]
 8048739:	01 d0                	add    eax,edx
 804873b:	83 e0 01             	and    eax,0x1
 804873e:	85 c0                	test   eax,eax
 8048740:	75 2d                	jne    804876f <main+0x252>
 8048742:	8b 44 24 10          	mov    eax,DWORD PTR [esp+0x10]
 8048746:	0f af 84 24 3c 03 00 	imul   eax,DWORD PTR [esp+0x33c]
 804874d:	00 
 804874e:	89 c2                	mov    edx,eax
 8048750:	8b 84 24 38 03 00 00 	mov    eax,DWORD PTR [esp+0x338]
 8048757:	01 d0                	add    eax,edx
 8048759:	8b 44 84 18          	mov    eax,DWORD PTR [esp+eax*4+0x18]
 804875d:	89 44 24 04          	mov    DWORD PTR [esp+0x4],eax
 8048761:	c7 04 24 95 88 04 08 	mov    DWORD PTR [esp],0x8048895
 8048768:	e8 43 fc ff ff       	call   80483b0 <printf@plt>
 804876d:	eb 0c                	jmp    804877b <main+0x25e>
 804876f:	c7 04 24 99 88 04 08 	mov    DWORD PTR [esp],0x8048899
 8048776:	e8 35 fc ff ff       	call   80483b0 <printf@plt>
 804877b:	83 84 24 38 03 00 00 	add    DWORD PTR [esp+0x338],0x1
 8048782:	01 
 8048783:	8b 44 24 10          	mov    eax,DWORD PTR [esp+0x10]
 8048787:	39 84 24 38 03 00 00 	cmp    DWORD PTR [esp+0x338],eax
 804878e:	72 9b                	jb     804872b <main+0x20e>
 8048790:	c7 04 24 9d 88 04 08 	mov    DWORD PTR [esp],0x804889d
 8048797:	e8 24 fc ff ff       	call   80483c0 <puts@plt>
 804879c:	83 84 24 3c 03 00 00 	add    DWORD PTR [esp+0x33c],0x1
 80487a3:	01 
 80487a4:	8b 44 24 14          	mov    eax,DWORD PTR [esp+0x14]
 80487a8:	39 84 24 3c 03 00 00 	cmp    DWORD PTR [esp+0x33c],eax
 80487af:	0f 82 69 ff ff ff    	jb     804871e <main+0x201>
 80487b5:	b8 00 00 00 00       	mov    eax,0x0
 80487ba:	c9                   	leave  
 80487bb:	c3                   	ret    
 80487bc:	66 90                	xchg   ax,ax
 80487be:	66 90                	xchg   ax,ax

080487c0 <__libc_csu_init>:
 80487c0:	55                   	push   ebp
 80487c1:	57                   	push   edi
 80487c2:	31 ff                	xor    edi,edi
 80487c4:	56                   	push   esi
 80487c5:	53                   	push   ebx
 80487c6:	e8 85 fc ff ff       	call   8048450 <__x86.get_pc_thunk.bx>
 80487cb:	81 c3 35 18 00 00    	add    ebx,0x1835
 80487d1:	83 ec 1c             	sub    esp,0x1c
 80487d4:	8b 6c 24 30          	mov    ebp,DWORD PTR [esp+0x30]
 80487d8:	8d b3 0c ff ff ff    	lea    esi,[ebx-0xf4]
 80487de:	e8 99 fb ff ff       	call   804837c <_init>
 80487e3:	8d 83 08 ff ff ff    	lea    eax,[ebx-0xf8]
 80487e9:	29 c6                	sub    esi,eax
 80487eb:	c1 fe 02             	sar    esi,0x2
 80487ee:	85 f6                	test   esi,esi
 80487f0:	74 27                	je     8048819 <__libc_csu_init+0x59>
 80487f2:	8d b6 00 00 00 00    	lea    esi,[esi+0x0]
 80487f8:	8b 44 24 38          	mov    eax,DWORD PTR [esp+0x38]
 80487fc:	89 2c 24             	mov    DWORD PTR [esp],ebp
 80487ff:	89 44 24 08          	mov    DWORD PTR [esp+0x8],eax
 8048803:	8b 44 24 34          	mov    eax,DWORD PTR [esp+0x34]
 8048807:	89 44 24 04          	mov    DWORD PTR [esp+0x4],eax
 804880b:	ff 94 bb 08 ff ff ff 	call   DWORD PTR [ebx+edi*4-0xf8]
 8048812:	83 c7 01             	add    edi,0x1
 8048815:	39 f7                	cmp    edi,esi
 8048817:	75 df                	jne    80487f8 <__libc_csu_init+0x38>
 8048819:	83 c4 1c             	add    esp,0x1c
 804881c:	5b                   	pop    ebx
 804881d:	5e                   	pop    esi
 804881e:	5f                   	pop    edi
 804881f:	5d                   	pop    ebp
 8048820:	c3                   	ret    
 8048821:	eb 0d                	jmp    8048830 <__libc_csu_fini>
 8048823:	90                   	nop
 8048824:	90                   	nop
 8048825:	90                   	nop
 8048826:	90                   	nop
 8048827:	90                   	nop
 8048828:	90                   	nop
 8048829:	90                   	nop
 804882a:	90                   	nop
 804882b:	90                   	nop
 804882c:	90                   	nop
 804882d:	90                   	nop
 804882e:	90                   	nop
 804882f:	90                   	nop

08048830 <__libc_csu_fini>:
 8048830:	f3 c3                	repz ret 

Disassembly of section .fini:

08048834 <_fini>:
 8048834:	53                   	push   ebx
 8048835:	83 ec 08             	sub    esp,0x8
 8048838:	e8 13 fc ff ff       	call   8048450 <__x86.get_pc_thunk.bx>
 804883d:	81 c3 c3 17 00 00    	add    ebx,0x17c3
 8048843:	83 c4 08             	add    esp,0x8
 8048846:	5b                   	pop    ebx
 8048847:	c3                   	ret    
